---
triple:          'arm64-apple-darwin'
binary-path:     '/Users/gauravarora/Desktop/cpp/sqlDB/output/sqldb-gpt'
relocations:
  - { offsetInCU: 0x29CED, offset: 0x29CED, size: 0x8, addend: 0x0, symName: __ZStL8__ioinit, symObjAddr: 0x12C418, symBinAddr: 0x10001C040, symSize: 0x0 }
  - { offsetInCU: 0x2B88A, offset: 0x2B88A, size: 0x8, addend: 0x0, symName: __ZNSt10_Head_baseILm0ERKNSt7__cxx1112basic_stringIcSt11char_traitsIcESaIcEEELb0EE7_M_headERS8_, symObjAddr: 0xA880, symBinAddr: 0x10000E2E4, symSize: 0x18 }
  - { offsetInCU: 0x2B8B3, offset: 0x2B8B3, size: 0x8, addend: 0x0, symName: __ZNSt11_Tuple_implILm0EJRKNSt7__cxx1112basic_stringIcSt11char_traitsIcESaIcEEEEE7_M_headERS8_, symObjAddr: 0xA864, symBinAddr: 0x10000E2C8, symSize: 0x1C }
  - { offsetInCU: 0x2B8DD, offset: 0x2B8DD, size: 0x8, addend: 0x0, symName: __ZSt12__get_helperILm0ERKNSt7__cxx1112basic_stringIcSt11char_traitsIcESaIcEEEJEERT0_RSt11_Tuple_implIXT_EJS8_DpT1_EE, symObjAddr: 0xA848, symBinAddr: 0x10000E2AC, symSize: 0x1C }
  - { offsetInCU: 0x2BA2D, offset: 0x2BA2D, size: 0x8, addend: 0x0, symName: __ZNSt4pairIKNSt7__cxx1112basic_stringIcSt11char_traitsIcESaIcEEE6RecordEC1IJRS6_EJLm0EEJEJEEERSt5tupleIJDpT_EERSB_IJDpT1_EESt12_Index_tupleIJXspT0_EEESK_IJXspT2_EEE, symObjAddr: 0xA7F0, symBinAddr: 0x10000E254, symSize: 0x58 }
  - { offsetInCU: 0x2BA02, offset: 0x2BA02, size: 0x8, addend: 0x0, symName: __ZSt7forwardIRKNSt7__cxx1112basic_stringIcSt11char_traitsIcESaIcEEEEOT_RNSt16remove_referenceIS8_E4typeE, symObjAddr: 0xA7DC, symBinAddr: 0x10000E240, symSize: 0x14 }
  - { offsetInCU: 0x2BA34, offset: 0x2BA34, size: 0x8, addend: 0x0, symName: __ZSt3getILm0EJRKNSt7__cxx1112basic_stringIcSt11char_traitsIcESaIcEEEEERNSt13tuple_elementIXT_ESt5tupleIJDpT0_EEE4typeERSC_, symObjAddr: 0xA7C0, symBinAddr: 0x10000E224, symSize: 0x1C }
  - { offsetInCU: 0x2BB80, offset: 0x2BB80, size: 0x8, addend: 0x0, symName: __ZNSt4pairIKNSt7__cxx1112basic_stringIcSt11char_traitsIcESaIcEEE5TableEC1IJRS6_EJLm0EEJEJEEERSt5tupleIJDpT_EERSB_IJDpT1_EESt12_Index_tupleIJXspT0_EEESK_IJXspT2_EEE, symObjAddr: 0xA768, symBinAddr: 0x10000E1CC, symSize: 0x58 }
  - { offsetInCU: 0x2BB4F, offset: 0x2BB4F, size: 0x8, addend: 0x0, symName: __ZSt11__addressofINSt8__detail10_Hash_nodeISt4pairIKNSt7__cxx1112basic_stringIcSt11char_traitsIcESaIcEEE5TableELb1EEEEPT_RSD_, symObjAddr: 0xA754, symBinAddr: 0x10000E1B8, symSize: 0x14 }
  - { offsetInCU: 0x2BC57, offset: 0x2BC57, size: 0x8, addend: 0x0, symName: __ZNSt4pairIKNSt7__cxx1112basic_stringIcSt11char_traitsIcESaIcEEE6RecordEC1IJRS6_EJEEESt21piecewise_construct_tSt5tupleIJDpT_EESC_IJDpT0_EE, symObjAddr: 0xA718, symBinAddr: 0x10000E17C, symSize: 0x3C }
  - { offsetInCU: 0x2BC27, offset: 0x2BC27, size: 0x8, addend: 0x0, symName: __ZNK9__gnu_cxx16__aligned_bufferISt4pairIKNSt7__cxx1112basic_stringIcSt11char_traitsIcESaIcEEESt3anyEE7_M_addrEv, symObjAddr: 0xA704, symBinAddr: 0x10000E168, symSize: 0x14 }
  - { offsetInCU: 0x2BD59, offset: 0x2BD59, size: 0x8, addend: 0x0, symName: __ZNSt4pairIKNSt7__cxx1112basic_stringIcSt11char_traitsIcESaIcEEESt3anyEC1IJRS6_EJLm0EEJEJEEERSt5tupleIJDpT_EERSB_IJDpT1_EESt12_Index_tupleIJXspT0_EEESK_IJXspT2_EEE, symObjAddr: 0xA6AC, symBinAddr: 0x10000E110, symSize: 0x58 }
  - { offsetInCU: 0x2BE38, offset: 0x2BE38, size: 0x8, addend: 0x0, symName: __ZNSt4pairIKNSt7__cxx1112basic_stringIcSt11char_traitsIcESaIcEEE8DataTypeEC1IJRS6_EJLm0EEJEJEEERSt5tupleIJDpT_EERSB_IJDpT1_EESt12_Index_tupleIJXspT0_EEESK_IJXspT2_EEE, symObjAddr: 0xA658, symBinAddr: 0x10000E0BC, symSize: 0x54 }
  - { offsetInCU: 0x2BED9, offset: 0x2BED9, size: 0x8, addend: 0x0, symName: __ZNSt4pairIKNSt7__cxx1112basic_stringIcSt11char_traitsIcESaIcEEE5TableEC1IJRS6_EJEEESt21piecewise_construct_tSt5tupleIJDpT_EESC_IJDpT0_EE, symObjAddr: 0xA61C, symBinAddr: 0x10000E080, symSize: 0x3C }
  - { offsetInCU: 0x2BEAA, offset: 0x2BEAA, size: 0x8, addend: 0x0, symName: __ZNK9__gnu_cxx16__aligned_bufferISt4pairIKNSt7__cxx1112basic_stringIcSt11char_traitsIcESaIcEEE5TableEE7_M_addrEv, symObjAddr: 0xA608, symBinAddr: 0x10000E06C, symSize: 0x14 }
  - { offsetInCU: 0x2BECF, offset: 0x2BECF, size: 0x8, addend: 0x0, symName: __ZSt9addressofINSt8__detail10_Hash_nodeISt4pairIKNSt7__cxx1112basic_stringIcSt11char_traitsIcESaIcEEE5TableELb1EEEEPT_RSD_, symObjAddr: 0xA5EC, symBinAddr: 0x10000E050, symSize: 0x1C }
  - { offsetInCU: 0x2BF1C, offset: 0x2BF1C, size: 0x8, addend: 0x0, symName: __ZSt11__addressofINSt8__detail10_Hash_nodeISt4pairIKNSt7__cxx1112basic_stringIcSt11char_traitsIcESaIcEEE8DataTypeELb1EEEEPT_RSD_, symObjAddr: 0xA5D8, symBinAddr: 0x10000E03C, symSize: 0x14 }
  - { offsetInCU: 0x2BF4E, offset: 0x2BF4E, size: 0x8, addend: 0x0, symName: __ZSt11__addressofINSt8__detail10_Hash_nodeISt4pairIKNSt7__cxx1112basic_stringIcSt11char_traitsIcESaIcEEESt3anyELb1EEEEPT_RSD_, symObjAddr: 0xA5C4, symBinAddr: 0x10000E028, symSize: 0x14 }
  - { offsetInCU: 0x2BFE8, offset: 0x2BFE8, size: 0x8, addend: 0x0, symName: __ZNSt15__new_allocatorISt13_Rb_tree_nodeISt4pairIKNSt7__cxx1112basic_stringIcSt11char_traitsIcESaIcEEE6RecordEEE8allocateEmPKv, symObjAddr: 0xA524, symBinAddr: 0x10000DF88, symSize: 0xA0 }
  - { offsetInCU: 0x2C079, offset: 0x2C079, size: 0x8, addend: 0x0, symName: __ZNK9__gnu_cxx16__aligned_membufISt4pairIKNSt7__cxx1112basic_stringIcSt11char_traitsIcESaIcEEE6RecordEE7_M_addrEv, symObjAddr: 0xA510, symBinAddr: 0x10000DF74, symSize: 0x14 }
  - { offsetInCU: 0x2C0A2, offset: 0x2C0A2, size: 0x8, addend: 0x0, symName: __ZNK9__gnu_cxx16__aligned_bufferISt4pairIKNSt7__cxx1112basic_stringIcSt11char_traitsIcESaIcEEESt3anyEE6_M_ptrEv, symObjAddr: 0xA4F4, symBinAddr: 0x10000DF58, symSize: 0x1C }
  - { offsetInCU: 0x2C19D, offset: 0x2C19D, size: 0x8, addend: 0x0, symName: __ZNSt4pairIKNSt7__cxx1112basic_stringIcSt11char_traitsIcESaIcEEESt3anyEC1IJRS6_EJEEESt21piecewise_construct_tSt5tupleIJDpT_EESC_IJDpT0_EE, symObjAddr: 0xA4B8, symBinAddr: 0x10000DF1C, symSize: 0x3C }
  - { offsetInCU: 0x2C165, offset: 0x2C165, size: 0x8, addend: 0x0, symName: __ZSt11__addressofIPNSt8__detail15_Hash_node_baseEEPT_RS3_, symObjAddr: 0xA4A4, symBinAddr: 0x10000DF08, symSize: 0x14 }
  - { offsetInCU: 0x2C1A0, offset: 0x2C1A0, size: 0x8, addend: 0x0, symName: __ZNK9__gnu_cxx16__aligned_bufferISt4pairIKNSt7__cxx1112basic_stringIcSt11char_traitsIcESaIcEEE8DataTypeEE7_M_addrEv, symObjAddr: 0xA490, symBinAddr: 0x10000DEF4, symSize: 0x14 }
  - { offsetInCU: 0x2C29D, offset: 0x2C29D, size: 0x8, addend: 0x0, symName: __ZNSt4pairIKNSt7__cxx1112basic_stringIcSt11char_traitsIcESaIcEEE8DataTypeEC1IJRS6_EJEEESt21piecewise_construct_tSt5tupleIJDpT_EESC_IJDpT0_EE, symObjAddr: 0xA454, symBinAddr: 0x10000DEB8, symSize: 0x3C }
  - { offsetInCU: 0x2C2E2, offset: 0x2C2E2, size: 0x8, addend: 0x0, symName: __ZNSt11_Tuple_implILm0EJRKNSt7__cxx1112basic_stringIcSt11char_traitsIcESaIcEEEEEC2EOS8_, symObjAddr: 0xA42C, symBinAddr: 0x10000DE90, symSize: 0x28 }
  - { offsetInCU: 0x2C2BD, offset: 0x2C2BD, size: 0x8, addend: 0x0, symName: __ZNSt8__detail16_Hashtable_allocISaINS_10_Hash_nodeISt4pairIKNSt7__cxx1112basic_stringIcSt11char_traitsIcESaIcEEE5TableELb1EEEEE19_M_allocate_bucketsEm, symObjAddr: 0xA37C, symBinAddr: 0x10000DDE0, symSize: 0xB0 }
  - { offsetInCU: 0x2C3E4, offset: 0x2C3E4, size: 0x8, addend: 0x0, symName: __ZNSt15__new_allocatorINSt8__detail10_Hash_nodeISt4pairIKNSt7__cxx1112basic_stringIcSt11char_traitsIcESaIcEEE5TableELb1EEEE10deallocateEPSC_m, symObjAddr: 0xA338, symBinAddr: 0x10000DD9C, symSize: 0x44 }
  - { offsetInCU: 0x2C484, offset: 0x2C484, size: 0x8, addend: 0x0, symName: __ZNSt15__new_allocatorINSt8__detail10_Hash_nodeISt4pairIKNSt7__cxx1112basic_stringIcSt11char_traitsIcESaIcEEE5TableELb1EEEE8allocateEmPKv, symObjAddr: 0xA290, symBinAddr: 0x10000DCF4, symSize: 0xA8 }
  - { offsetInCU: 0x2C515, offset: 0x2C515, size: 0x8, addend: 0x0, symName: __ZN9__gnu_cxx16__aligned_bufferISt4pairIKNSt7__cxx1112basic_stringIcSt11char_traitsIcESaIcEEE5TableEE7_M_addrEv, symObjAddr: 0xA27C, symBinAddr: 0x10000DCE0, symSize: 0x14 }
  - { offsetInCU: 0x2C53A, offset: 0x2C53A, size: 0x8, addend: 0x0, symName: __ZNSt8__detail15_Hashtable_baseINSt7__cxx1112basic_stringIcSt11char_traitsIcESaIcEEESt4pairIKS6_5TableENS_10_Select1stESt8equal_toIS6_ESt4hashIS6_ENS_18_Mod_range_hashingENS_20_Default_ranged_hashENS_17_Hashtable_traitsILb1ELb0ELb1EEEE9_S_equalsEmRKNS_21_Hash_node_code_cacheILb1EEE, symObjAddr: 0xA250, symBinAddr: 0x10000DCB4, symSize: 0x2C }
  - { offsetInCU: 0x2C579, offset: 0x2C579, size: 0x8, addend: 0x0, symName: __ZNK9__gnu_cxx16__aligned_bufferISt4pairIKNSt7__cxx1112basic_stringIcSt11char_traitsIcESaIcEEE5TableEE6_M_ptrEv, symObjAddr: 0xA234, symBinAddr: 0x10000DC98, symSize: 0x1C }
  - { offsetInCU: 0x2C59F, offset: 0x2C59F, size: 0x8, addend: 0x0, symName: __ZNSt19__ptr_traits_ptr_toIPNSt8__detail10_Hash_nodeISt4pairIKNSt7__cxx1112basic_stringIcSt11char_traitsIcESaIcEEE5TableELb1EEESC_Lb0EE10pointer_toERSC_, symObjAddr: 0xA218, symBinAddr: 0x10000DC7C, symSize: 0x1C }
  - { offsetInCU: 0x2C668, offset: 0x2C668, size: 0x8, addend: 0x0, symName: __ZNSt4pairIKNSt7__cxx1112basic_stringIcSt11char_traitsIcESaIcEEE5TableED1Ev, symObjAddr: 0xA1EC, symBinAddr: 0x10000DC50, symSize: 0x2C }
  - { offsetInCU: 0x2C646, offset: 0x2C646, size: 0x8, addend: 0x0, symName: __ZNSt8__detail21_Hashtable_ebo_helperILi0ESaINS_10_Hash_nodeISt4pairIKNSt7__cxx1112basic_stringIcSt11char_traitsIcESaIcEEE5TableELb1EEEELb1EE6_M_getEv, symObjAddr: 0xA1D8, symBinAddr: 0x10000DC3C, symSize: 0x14 }
  - { offsetInCU: 0x2C68F, offset: 0x2C68F, size: 0x8, addend: 0x0, symName: __ZSt9addressofINSt8__detail10_Hash_nodeISt4pairIKNSt7__cxx1112basic_stringIcSt11char_traitsIcESaIcEEE8DataTypeELb1EEEEPT_RSD_, symObjAddr: 0xA1BC, symBinAddr: 0x10000DC20, symSize: 0x1C }
  - { offsetInCU: 0x2C772, offset: 0x2C772, size: 0x8, addend: 0x0, symName: __ZNSt4pairIKNSt7__cxx1112basic_stringIcSt11char_traitsIcESaIcEEESt3anyEC1ERKS8_, symObjAddr: 0xA15C, symBinAddr: 0x10000DBC0, symSize: 0x60 }
  - { offsetInCU: 0x2C751, offset: 0x2C751, size: 0x8, addend: 0x0, symName: __ZSt9addressofINSt8__detail10_Hash_nodeISt4pairIKNSt7__cxx1112basic_stringIcSt11char_traitsIcESaIcEEESt3anyELb1EEEEPT_RSD_, symObjAddr: 0xA140, symBinAddr: 0x10000DBA4, symSize: 0x1C }
  - { offsetInCU: 0x2C791, offset: 0x2C791, size: 0x8, addend: 0x0, symName: __ZSt7forwardIRPSt13_Rb_tree_nodeISt4pairIKNSt7__cxx1112basic_stringIcSt11char_traitsIcESaIcEEE6RecordEEEOT_RNSt16remove_referenceISE_E4typeE, symObjAddr: 0xA12C, symBinAddr: 0x10000DB90, symSize: 0x14 }
  - { offsetInCU: 0x2C843, offset: 0x2C843, size: 0x8, addend: 0x0, symName: __ZNK9__gnu_cxx16__aligned_membufISt4pairIKNSt7__cxx1112basic_stringIcSt11char_traitsIcESaIcEEE6RecordEE6_M_ptrEv, symObjAddr: 0xA110, symBinAddr: 0x10000DB74, symSize: 0x1C }
  - { offsetInCU: 0x2C86D, offset: 0x2C86D, size: 0x8, addend: 0x0, symName: __ZNSt15__new_allocatorISt13_Rb_tree_nodeISt4pairIKNSt7__cxx1112basic_stringIcSt11char_traitsIcESaIcEEE6RecordEEE10deallocateEPSB_m, symObjAddr: 0xA0CC, symBinAddr: 0x10000DB30, symSize: 0x44 }
  - { offsetInCU: 0x2C954, offset: 0x2C954, size: 0x8, addend: 0x0, symName: __ZNSt4pairIKNSt7__cxx1112basic_stringIcSt11char_traitsIcESaIcEEE6RecordED1Ev, symObjAddr: 0xA0A0, symBinAddr: 0x10000DB04, symSize: 0x2C }
  - { offsetInCU: 0x2C947, offset: 0x2C947, size: 0x8, addend: 0x0, symName: __ZNSt15__new_allocatorINSt8__detail10_Hash_nodeISt4pairIKNSt7__cxx1112basic_stringIcSt11char_traitsIcESaIcEEESt3anyELb1EEEE10deallocateEPSC_m, symObjAddr: 0xA070, symBinAddr: 0x10000DAD4, symSize: 0x30 }
  - { offsetInCU: 0x2C9E7, offset: 0x2C9E7, size: 0x8, addend: 0x0, symName: __ZNSt15__new_allocatorINSt8__detail10_Hash_nodeISt4pairIKNSt7__cxx1112basic_stringIcSt11char_traitsIcESaIcEEESt3anyELb1EEEE8allocateEmPKv, symObjAddr: 0x9FF4, symBinAddr: 0x10000DA58, symSize: 0x7C }
  - { offsetInCU: 0x2CA6F, offset: 0x2CA6F, size: 0x8, addend: 0x0, symName: __ZNSt8__detail15_Hashtable_baseINSt7__cxx1112basic_stringIcSt11char_traitsIcESaIcEEESt4pairIKS6_St3anyENS_10_Select1stESt8equal_toIS6_ESt4hashIS6_ENS_18_Mod_range_hashingENS_20_Default_ranged_hashENS_17_Hashtable_traitsILb1ELb0ELb1EEEE9_S_equalsEmRKNS_21_Hash_node_code_cacheILb1EEE, symObjAddr: 0x9FC8, symBinAddr: 0x10000DA2C, symSize: 0x2C }
  - { offsetInCU: 0x2CB5E, offset: 0x2CB5E, size: 0x8, addend: 0x0, symName: __ZNSt4pairIKNSt7__cxx1112basic_stringIcSt11char_traitsIcESaIcEEE8DataTypeEC1ERKS8_, symObjAddr: 0x9F90, symBinAddr: 0x10000D9F4, symSize: 0x38 }
  - { offsetInCU: 0x2CB3E, offset: 0x2CB3E, size: 0x8, addend: 0x0, symName: __ZNSt15__new_allocatorIPNSt8__detail15_Hash_node_baseEE8allocateEmPKv, symObjAddr: 0x9F14, symBinAddr: 0x10000D978, symSize: 0x7C }
  - { offsetInCU: 0x2CBCA, offset: 0x2CBCA, size: 0x8, addend: 0x0, symName: __ZNSt15__new_allocatorIPNSt8__detail15_Hash_node_baseEE10deallocateEPS2_m, symObjAddr: 0x9EE4, symBinAddr: 0x10000D948, symSize: 0x30 }
  - { offsetInCU: 0x2CC70, offset: 0x2CC70, size: 0x8, addend: 0x0, symName: __ZNSt15__new_allocatorIPNSt8__detail15_Hash_node_baseEED2Ev, symObjAddr: 0x9ED0, symBinAddr: 0x10000D934, symSize: 0x14 }
  - { offsetInCU: 0x2CC70, offset: 0x2CC70, size: 0x8, addend: 0x0, symName: __ZSt9addressofIPNSt8__detail15_Hash_node_baseEEPT_RS3_, symObjAddr: 0x9EB4, symBinAddr: 0x10000D918, symSize: 0x1C }
  - { offsetInCU: 0x2CCA6, offset: 0x2CCA6, size: 0x8, addend: 0x0, symName: __ZNK9__gnu_cxx16__aligned_bufferISt4pairIKNSt7__cxx1112basic_stringIcSt11char_traitsIcESaIcEEE8DataTypeEE6_M_ptrEv, symObjAddr: 0x9E98, symBinAddr: 0x10000D8FC, symSize: 0x1C }
  - { offsetInCU: 0x2CCD0, offset: 0x2CCD0, size: 0x8, addend: 0x0, symName: __ZNSt15__new_allocatorINSt8__detail10_Hash_nodeISt4pairIKNSt7__cxx1112basic_stringIcSt11char_traitsIcESaIcEEE8DataTypeELb1EEEE10deallocateEPSC_m, symObjAddr: 0x9E5C, symBinAddr: 0x10000D8C0, symSize: 0x3C }
  - { offsetInCU: 0x2CDD8, offset: 0x2CDD8, size: 0x8, addend: 0x0, symName: __ZNSt5tupleIJRKNSt7__cxx1112basic_stringIcSt11char_traitsIcESaIcEEEEEC1EOS8_, symObjAddr: 0x9E34, symBinAddr: 0x10000D898, symSize: 0x28 }
  - { offsetInCU: 0x2CDBE, offset: 0x2CDBE, size: 0x8, addend: 0x0, symName: __ZNSt15__new_allocatorINSt8__detail10_Hash_nodeISt4pairIKNSt7__cxx1112basic_stringIcSt11char_traitsIcESaIcEEE8DataTypeELb1EEEE8allocateEmPKv, symObjAddr: 0x9D9C, symBinAddr: 0x10000D800, symSize: 0x98 }
  - { offsetInCU: 0x2CE4F, offset: 0x2CE4F, size: 0x8, addend: 0x0, symName: __ZN9__gnu_cxx16__aligned_bufferISt4pairIKNSt7__cxx1112basic_stringIcSt11char_traitsIcESaIcEEE8DataTypeEE7_M_addrEv, symObjAddr: 0x9D88, symBinAddr: 0x10000D7EC, symSize: 0x14 }
  - { offsetInCU: 0x2CE74, offset: 0x2CE74, size: 0x8, addend: 0x0, symName: __ZNSt8__detail15_Hashtable_baseINSt7__cxx1112basic_stringIcSt11char_traitsIcESaIcEEESt4pairIKS6_8DataTypeENS_10_Select1stESt8equal_toIS6_ESt4hashIS6_ENS_18_Mod_range_hashingENS_20_Default_ranged_hashENS_17_Hashtable_traitsILb1ELb0ELb1EEEE9_S_equalsEmRKNS_21_Hash_node_code_cacheILb1EEE, symObjAddr: 0x9D5C, symBinAddr: 0x10000D7C0, symSize: 0x2C }
  - { offsetInCU: 0x2CEB3, offset: 0x2CEB3, size: 0x8, addend: 0x0, symName: __ZNKSt8__detail15_Hash_code_baseINSt7__cxx1112basic_stringIcSt11char_traitsIcESaIcEEESt4pairIKS6_5TableENS_10_Select1stESt4hashIS6_ENS_18_Mod_range_hashingENS_20_Default_ranged_hashELb1EE15_M_bucket_indexERKNS_16_Hash_node_valueISA_Lb1EEEm, symObjAddr: 0x9D2C, symBinAddr: 0x10000D790, symSize: 0x30 }
  - { offsetInCU: 0x2CEFF, offset: 0x2CEFF, size: 0x8, addend: 0x0, symName: __ZNSt10_HashtableINSt7__cxx1112basic_stringIcSt11char_traitsIcESaIcEEESt4pairIKS5_5TableESaIS9_ENSt8__detail10_Select1stESt8equal_toIS5_ESt4hashIS5_ENSB_18_Mod_range_hashingENSB_20_Default_ranged_hashENSB_20_Prime_rehash_policyENSB_17_Hashtable_traitsILb1ELb0ELb1EEEE19_M_allocate_bucketsEm, symObjAddr: 0x9CD4, symBinAddr: 0x10000D738, symSize: 0x58 }
  - { offsetInCU: 0x2CFC0, offset: 0x2CFC0, size: 0x8, addend: 0x0, symName: __ZSt12__to_addressINSt8__detail10_Hash_nodeISt4pairIKNSt7__cxx1112basic_stringIcSt11char_traitsIcESaIcEEE5TableELb1EEEEPT_SE_, symObjAddr: 0x9CC0, symBinAddr: 0x10000D724, symSize: 0x14 }
  - { offsetInCU: 0x2D01A, offset: 0x2D01A, size: 0x8, addend: 0x0, symName: __ZN9__gnu_cxx16__aligned_bufferISt4pairIKNSt7__cxx1112basic_stringIcSt11char_traitsIcESaIcEEE5TableEE6_M_ptrEv, symObjAddr: 0x9CA4, symBinAddr: 0x10000D708, symSize: 0x1C }
  - { offsetInCU: 0x2D044, offset: 0x2D044, size: 0x8, addend: 0x0, symName: __ZNKSt10_HashtableINSt7__cxx1112basic_stringIcSt11char_traitsIcESaIcEEESt4pairIKS5_5TableESaIS9_ENSt8__detail10_Select1stESt8equal_toIS5_ESt4hashIS5_ENSB_18_Mod_range_hashingENSB_20_Default_ranged_hashENSB_20_Prime_rehash_policyENSB_17_Hashtable_traitsILb1ELb0ELb1EEEE15_M_bucket_indexERKNSB_16_Hash_node_valueIS9_Lb1EEE, symObjAddr: 0x9C74, symBinAddr: 0x10000D6D8, symSize: 0x30 }
  - { offsetInCU: 0x2D07F, offset: 0x2D07F, size: 0x8, addend: 0x0, symName: __ZNKSt8__detail15_Hashtable_baseINSt7__cxx1112basic_stringIcSt11char_traitsIcESaIcEEESt4pairIKS6_5TableENS_10_Select1stESt8equal_toIS6_ESt4hashIS6_ENS_18_Mod_range_hashingENS_20_Default_ranged_hashENS_17_Hashtable_traitsILb1ELb0ELb1EEEE9_M_equalsERS8_mRKNS_16_Hash_node_valueISA_Lb1EEE, symObjAddr: 0x9C0C, symBinAddr: 0x10000D670, symSize: 0x68 }
  - { offsetInCU: 0x2D0DF, offset: 0x2D0DF, size: 0x8, addend: 0x0, symName: __ZSt7forwardIRKSt4pairIKNSt7__cxx1112basic_stringIcSt11char_traitsIcESaIcEEE5TableEEOT_RNSt16remove_referenceISC_E4typeE, symObjAddr: 0x9BF8, symBinAddr: 0x10000D65C, symSize: 0x14 }
  - { offsetInCU: 0x2D14F, offset: 0x2D14F, size: 0x8, addend: 0x0, symName: __ZNSt8__detail16_Hashtable_allocISaINS_10_Hash_nodeISt4pairIKNSt7__cxx1112basic_stringIcSt11char_traitsIcESaIcEEE5TableELb1EEEEE22_M_deallocate_node_ptrEPSC_, symObjAddr: 0x9BA0, symBinAddr: 0x10000D604, symSize: 0x58 }
  - { offsetInCU: 0x2D1FE, offset: 0x2D1FE, size: 0x8, addend: 0x0, symName: __ZNSt8__detail16_Hashtable_allocISaINS_10_Hash_nodeISt4pairIKNSt7__cxx1112basic_stringIcSt11char_traitsIcESaIcEEE5TableELb1EEEEE17_M_node_allocatorEv, symObjAddr: 0x9B84, symBinAddr: 0x10000D5E8, symSize: 0x1C }
  - { offsetInCU: 0x2D2F5, offset: 0x2D2F5, size: 0x8, addend: 0x0, symName: __ZNSt8__detail21_Hashtable_ebo_helperILi0ESaINS_10_Hash_nodeISt4pairIKNSt7__cxx1112basic_stringIcSt11char_traitsIcESaIcEEESt3anyELb1EEEELb1EEC2ISD_EEOT_, symObjAddr: 0x9B38, symBinAddr: 0x10000D59C, symSize: 0x4C }
  - { offsetInCU: 0x2D2F4, offset: 0x2D2F4, size: 0x8, addend: 0x0, symName: __ZSt7forwardISaINSt8__detail10_Hash_nodeISt4pairIKNSt7__cxx1112basic_stringIcSt11char_traitsIcESaIcEEESt3anyELb1EEEEEOT_RNSt16remove_referenceISE_E4typeE, symObjAddr: 0x9B24, symBinAddr: 0x10000D588, symSize: 0x14 }
  - { offsetInCU: 0x2D401, offset: 0x2D401, size: 0x8, addend: 0x0, symName: __ZNSt8__detail13_NodePtrGuardINS_16_Hashtable_allocISaINS_10_Hash_nodeISt4pairIKNSt7__cxx1112basic_stringIcSt11char_traitsIcESaIcEEE8DataTypeELb1EEEEEEPSD_ED1Ev, symObjAddr: 0x9AE0, symBinAddr: 0x10000D544, symSize: 0x44 }
  - { offsetInCU: 0x2D386, offset: 0x2D386, size: 0x8, addend: 0x0, symName: __ZNSt19__ptr_traits_ptr_toIPNSt8__detail10_Hash_nodeISt4pairIKNSt7__cxx1112basic_stringIcSt11char_traitsIcESaIcEEE8DataTypeELb1EEESC_Lb0EE10pointer_toERSC_, symObjAddr: 0x9AC4, symBinAddr: 0x10000D528, symSize: 0x1C }
  - { offsetInCU: 0x2D452, offset: 0x2D452, size: 0x8, addend: 0x0, symName: __ZNSt4pairIKNSt7__cxx1112basic_stringIcSt11char_traitsIcESaIcEEE8DataTypeED1Ev, symObjAddr: 0x9AA4, symBinAddr: 0x10000D508, symSize: 0x20 }
  - { offsetInCU: 0x2D4EB, offset: 0x2D4EB, size: 0x8, addend: 0x0, symName: __ZNSt8__detail13_NodePtrGuardINS_16_Hashtable_allocISaINS_10_Hash_nodeISt4pairIKNSt7__cxx1112basic_stringIcSt11char_traitsIcESaIcEEESt3anyELb1EEEEEEPSD_ED1Ev, symObjAddr: 0x9A60, symBinAddr: 0x10000D4C4, symSize: 0x44 }
  - { offsetInCU: 0x2D4B7, offset: 0x2D4B7, size: 0x8, addend: 0x0, symName: __ZNSt19__ptr_traits_ptr_toIPNSt8__detail10_Hash_nodeISt4pairIKNSt7__cxx1112basic_stringIcSt11char_traitsIcESaIcEEESt3anyELb1EEESC_Lb0EE10pointer_toERSC_, symObjAddr: 0x9A44, symBinAddr: 0x10000D4A8, symSize: 0x1C }
  - { offsetInCU: 0x2D580, offset: 0x2D580, size: 0x8, addend: 0x0, symName: __ZNSt4pairIKNSt7__cxx1112basic_stringIcSt11char_traitsIcESaIcEEESt3anyED1Ev, symObjAddr: 0x9A18, symBinAddr: 0x10000D47C, symSize: 0x2C }
  - { offsetInCU: 0x2D561, offset: 0x2D561, size: 0x8, addend: 0x0, symName: __ZSt7forwardIRPSt18_Rb_tree_node_baseEOT_RNSt16remove_referenceIS3_E4typeE, symObjAddr: 0x9A04, symBinAddr: 0x10000D468, symSize: 0x14 }
  - { offsetInCU: 0x2D66B, offset: 0x2D66B, size: 0x8, addend: 0x0, symName: __ZNSt4pairIPSt18_Rb_tree_node_baseS1_EC1IRPSt13_Rb_tree_nodeIS_IKNSt7__cxx1112basic_stringIcSt11char_traitsIcESaIcEEE6RecordEERS1_Lb1EEEOT_OT0_, symObjAddr: 0x99BC, symBinAddr: 0x10000D420, symSize: 0x48 }
  - { offsetInCU: 0x2D629, offset: 0x2D629, size: 0x8, addend: 0x0, symName: __ZNSt8_Rb_treeINSt7__cxx1112basic_stringIcSt11char_traitsIcESaIcEEESt4pairIKS5_6RecordESt10_Select1stIS9_ESt4lessIS5_ESaIS9_EE17_M_construct_nodeIJRKSt21piecewise_construct_tSt5tupleIJRS7_EESK_IJEEEEEvPSt13_Rb_tree_nodeIS9_EDpOT_, symObjAddr: 0x9840, symBinAddr: 0x10000D2A4, symSize: 0x17C }
  - { offsetInCU: 0x2D72A, offset: 0x2D72A, size: 0x8, addend: 0x0, symName: __ZNSt8_Rb_treeINSt7__cxx1112basic_stringIcSt11char_traitsIcESaIcEEESt4pairIKS5_6RecordESt10_Select1stIS9_ESt4lessIS5_ESaIS9_EE11_M_get_nodeEv, symObjAddr: 0x9804, symBinAddr: 0x10000D268, symSize: 0x3C }
  - { offsetInCU: 0x2D781, offset: 0x2D781, size: 0x8, addend: 0x0, symName: __ZNKSt10_Select1stISt4pairIKNSt7__cxx1112basic_stringIcSt11char_traitsIcESaIcEEE6RecordEEclERKS9_, symObjAddr: 0x97EC, symBinAddr: 0x10000D250, symSize: 0x18 }
  - { offsetInCU: 0x2D7BC, offset: 0x2D7BC, size: 0x8, addend: 0x0, symName: __ZNKSt13_Rb_tree_nodeISt4pairIKNSt7__cxx1112basic_stringIcSt11char_traitsIcESaIcEEE6RecordEE9_M_valptrEv, symObjAddr: 0x97CC, symBinAddr: 0x10000D230, symSize: 0x20 }
  - { offsetInCU: 0x2D84A, offset: 0x2D84A, size: 0x8, addend: 0x0, symName: __ZN9__gnu_cxx16__aligned_bufferISt4pairIKNSt7__cxx1112basic_stringIcSt11char_traitsIcESaIcEEESt3anyEE7_M_addrEv, symObjAddr: 0x97B8, symBinAddr: 0x10000D21C, symSize: 0x14 }
  - { offsetInCU: 0x2D87F, offset: 0x2D87F, size: 0x8, addend: 0x0, symName: __ZNKSt8__detail10_Select1stclIRKSt4pairIKNSt7__cxx1112basic_stringIcSt11char_traitsIcESaIcEEESt3anyEEEONS0_10__1st_typeIT_E4typeEOSF_, symObjAddr: 0x9798, symBinAddr: 0x10000D1FC, symSize: 0x20 }
  - { offsetInCU: 0x2D8D8, offset: 0x2D8D8, size: 0x8, addend: 0x0, symName: __ZNKSt8__detail15_Hashtable_baseINSt7__cxx1112basic_stringIcSt11char_traitsIcESaIcEEESt4pairIKS6_St3anyENS_10_Select1stESt8equal_toIS6_ESt4hashIS6_ENS_18_Mod_range_hashingENS_20_Default_ranged_hashENS_17_Hashtable_traitsILb1ELb0ELb1EEEE5_M_eqEv, symObjAddr: 0x977C, symBinAddr: 0x10000D1E0, symSize: 0x1C }
  - { offsetInCU: 0x2D988, offset: 0x2D988, size: 0x8, addend: 0x0, symName: __ZSt12__to_addressINSt8__detail10_Hash_nodeISt4pairIKNSt7__cxx1112basic_stringIcSt11char_traitsIcESaIcEEESt3anyELb1EEEEPT_SE_, symObjAddr: 0x9768, symBinAddr: 0x10000D1CC, symSize: 0x14 }
  - { offsetInCU: 0x2D9E2, offset: 0x2D9E2, size: 0x8, addend: 0x0, symName: __ZNKSt8__detail15_Hashtable_baseINSt7__cxx1112basic_stringIcSt11char_traitsIcESaIcEEESt4pairIKS6_St3anyENS_10_Select1stESt8equal_toIS6_ESt4hashIS6_ENS_18_Mod_range_hashingENS_20_Default_ranged_hashENS_17_Hashtable_traitsILb1ELb0ELb1EEEE9_M_equalsERS8_mRKNS_16_Hash_node_valueISA_Lb1EEE, symObjAddr: 0x9700, symBinAddr: 0x10000D164, symSize: 0x68 }
  - { offsetInCU: 0x2DA7F, offset: 0x2DA7F, size: 0x8, addend: 0x0, symName: __ZSt12__to_addressIPNSt8__detail15_Hash_node_baseEEPT_S4_, symObjAddr: 0x96EC, symBinAddr: 0x10000D150, symSize: 0x14 }
  - { offsetInCU: 0x2DB8A, offset: 0x2DB8A, size: 0x8, addend: 0x0, symName: __ZNSt19__ptr_traits_ptr_toIPPNSt8__detail15_Hash_node_baseES2_Lb0EE10pointer_toERS2_, symObjAddr: 0x96D0, symBinAddr: 0x10000D134, symSize: 0x1C }
  - { offsetInCU: 0x2DBCD, offset: 0x2DBCD, size: 0x8, addend: 0x0, symName: __ZNKSt8__detail21_Hashtable_ebo_helperILi0ESt8equal_toINSt7__cxx1112basic_stringIcSt11char_traitsIcESaIcEEEELb1EE7_M_cgetEv, symObjAddr: 0x96BC, symBinAddr: 0x10000D120, symSize: 0x14 }
  - { offsetInCU: 0x2DC7D, offset: 0x2DC7D, size: 0x8, addend: 0x0, symName: __ZSt12__to_addressINSt8__detail10_Hash_nodeISt4pairIKNSt7__cxx1112basic_stringIcSt11char_traitsIcESaIcEEE8DataTypeELb1EEEEPT_SE_, symObjAddr: 0x96A8, symBinAddr: 0x10000D10C, symSize: 0x14 }
  - { offsetInCU: 0x2DCD7, offset: 0x2DCD7, size: 0x8, addend: 0x0, symName: __ZN9__gnu_cxx16__aligned_bufferISt4pairIKNSt7__cxx1112basic_stringIcSt11char_traitsIcESaIcEEE8DataTypeEE6_M_ptrEv, symObjAddr: 0x968C, symBinAddr: 0x10000D0F0, symSize: 0x1C }
  - { offsetInCU: 0x2DD01, offset: 0x2DD01, size: 0x8, addend: 0x0, symName: __ZNKSt8__detail15_Hashtable_baseINSt7__cxx1112basic_stringIcSt11char_traitsIcESaIcEEESt4pairIKS6_8DataTypeENS_10_Select1stESt8equal_toIS6_ESt4hashIS6_ENS_18_Mod_range_hashingENS_20_Default_ranged_hashENS_17_Hashtable_traitsILb1ELb0ELb1EEEE9_M_equalsERS8_mRKNS_16_Hash_node_valueISA_Lb1EEE, symObjAddr: 0x9624, symBinAddr: 0x10000D088, symSize: 0x68 }
  - { offsetInCU: 0x2DD5E, offset: 0x2DD5E, size: 0x8, addend: 0x0, symName: __ZNKSt8__detail21_Hashtable_ebo_helperILi1ESt4hashINSt7__cxx1112basic_stringIcSt11char_traitsIcESaIcEEEELb1EE7_M_cgetEv, symObjAddr: 0x9610, symBinAddr: 0x10000D074, symSize: 0x14 }
  - { offsetInCU: 0x2DD8B, offset: 0x2DD8B, size: 0x8, addend: 0x0, symName: __ZSt4moveIRSaISt13_Rb_tree_nodeISt4pairIKNSt7__cxx1112basic_stringIcSt11char_traitsIcESaIcEEE6RecordEEEEONSt16remove_referenceIT_E4typeEOSF_, symObjAddr: 0x95FC, symBinAddr: 0x10000D060, symSize: 0x14 }
  - { offsetInCU: 0x2DDC4, offset: 0x2DDC4, size: 0x8, addend: 0x0, symName: __ZSt4moveIRSaINSt8__detail10_Hash_nodeISt4pairIKNSt7__cxx1112basic_stringIcSt11char_traitsIcESaIcEEE8DataTypeELb1EEEEEONSt16remove_referenceIT_E4typeEOSG_, symObjAddr: 0x95E8, symBinAddr: 0x10000D04C, symSize: 0x14 }
  - { offsetInCU: 0x2DDFA, offset: 0x2DDFA, size: 0x8, addend: 0x0, symName: __ZNSt10_HashtableINSt7__cxx1112basic_stringIcSt11char_traitsIcESaIcEEESt4pairIKS5_5TableESaIS9_ENSt8__detail10_Select1stESt8equal_toIS5_ESt4hashIS5_ENSB_18_Mod_range_hashingENSB_20_Default_ranged_hashENSB_20_Prime_rehash_policyENSB_17_Hashtable_traitsILb1ELb0ELb1EEEE22_M_insert_bucket_beginEmPNSB_10_Hash_nodeIS9_Lb1EEE, symObjAddr: 0x94DC, symBinAddr: 0x10000CF40, symSize: 0x10C }
  - { offsetInCU: 0x2DE46, offset: 0x2DE46, size: 0x8, addend: 0x0, symName: __ZNKSt8__detail15_Hash_code_baseINSt7__cxx1112basic_stringIcSt11char_traitsIcESaIcEEESt4pairIKS6_5TableENS_10_Select1stESt4hashIS6_ENS_18_Mod_range_hashingENS_20_Default_ranged_hashELb1EE13_M_store_codeERNS_21_Hash_node_code_cacheILb1EEEm, symObjAddr: 0x94B4, symBinAddr: 0x10000CF18, symSize: 0x28 }
  - { offsetInCU: 0x2DE92, offset: 0x2DE92, size: 0x8, addend: 0x0, symName: __ZNSt10_HashtableINSt7__cxx1112basic_stringIcSt11char_traitsIcESaIcEEESt4pairIKS5_5TableESaIS9_ENSt8__detail10_Select1stESt8equal_toIS5_ESt4hashIS5_ENSB_18_Mod_range_hashingENSB_20_Default_ranged_hashENSB_20_Prime_rehash_policyENSB_17_Hashtable_traitsILb1ELb0ELb1EEEE9_M_rehashEmSt17integral_constantIbLb1EE, symObjAddr: 0x9348, symBinAddr: 0x10000CDAC, symSize: 0x16C }
  - { offsetInCU: 0x2DF3F, offset: 0x2DF3F, size: 0x8, addend: 0x0, symName: __ZNSt8__detail16_Hashtable_allocISaINS_10_Hash_nodeISt4pairIKNSt7__cxx1112basic_stringIcSt11char_traitsIcESaIcEEE5TableELb1EEEEE16_M_allocate_nodeIJRKSt21piecewise_construct_tSt5tupleIJRS9_EESJ_IJEEEEEPSC_DpOT_, symObjAddr: 0x915C, symBinAddr: 0x10000CBC0, symSize: 0x1EC }
  - { offsetInCU: 0x2E174, offset: 0x2E174, size: 0x8, addend: 0x0, symName: __ZNSt8__detail10_Hash_nodeISt4pairIKNSt7__cxx1112basic_stringIcSt11char_traitsIcESaIcEEE5TableELb1EEC1Ev, symObjAddr: 0x913C, symBinAddr: 0x10000CBA0, symSize: 0x20 }
  - { offsetInCU: 0x2E14B, offset: 0x2E14B, size: 0x8, addend: 0x0, symName: __ZNKSt10_HashtableINSt7__cxx1112basic_stringIcSt11char_traitsIcESaIcEEESt4pairIKS5_5TableESaIS9_ENSt8__detail10_Select1stESt8equal_toIS5_ESt4hashIS5_ENSB_18_Mod_range_hashingENSB_20_Default_ranged_hashENSB_20_Prime_rehash_policyENSB_17_Hashtable_traitsILb1ELb0ELb1EEEE19_M_find_before_nodeEmRS7_m, symObjAddr: 0x9040, symBinAddr: 0x10000CAA4, symSize: 0xFC }
  - { offsetInCU: 0x2E1DD, offset: 0x2E1DD, size: 0x8, addend: 0x0, symName: __ZNKSt8__detail15_Hash_code_baseINSt7__cxx1112basic_stringIcSt11char_traitsIcESaIcEEESt4pairIKS6_5TableENS_10_Select1stESt4hashIS6_ENS_18_Mod_range_hashingENS_20_Default_ranged_hashELb1EE15_M_bucket_indexEmm, symObjAddr: 0x9014, symBinAddr: 0x10000CA78, symSize: 0x2C }
  - { offsetInCU: 0x2E229, offset: 0x2E229, size: 0x8, addend: 0x0, symName: __ZNKSt8__detail15_Hash_code_baseINSt7__cxx1112basic_stringIcSt11char_traitsIcESaIcEEESt4pairIKS6_5TableENS_10_Select1stESt4hashIS6_ENS_18_Mod_range_hashingENS_20_Default_ranged_hashELb1EE7_M_hashEv, symObjAddr: 0x8FF8, symBinAddr: 0x10000CA5C, symSize: 0x1C }
  - { offsetInCU: 0x2E302, offset: 0x2E302, size: 0x8, addend: 0x0, symName: __ZNSt8__detail19_Node_iterator_baseISt4pairIKNSt7__cxx1112basic_stringIcSt11char_traitsIcESaIcEEE5TableELb1EEC2EPNS_10_Hash_nodeISA_Lb1EEE, symObjAddr: 0x8FD4, symBinAddr: 0x10000CA38, symSize: 0x24 }
  - { offsetInCU: 0x2E2AA, offset: 0x2E2AA, size: 0x8, addend: 0x0, symName: __ZNKSt8__detail10_Select1stclIRKSt4pairIKNSt7__cxx1112basic_stringIcSt11char_traitsIcESaIcEEE5TableEEEONS0_10__1st_typeIT_E4typeEOSF_, symObjAddr: 0x8FB4, symBinAddr: 0x10000CA18, symSize: 0x20 }
  - { offsetInCU: 0x2E303, offset: 0x2E303, size: 0x8, addend: 0x0, symName: __ZNKSt8__detail15_Hashtable_baseINSt7__cxx1112basic_stringIcSt11char_traitsIcESaIcEEESt4pairIKS6_5TableENS_10_Select1stESt8equal_toIS6_ESt4hashIS6_ENS_18_Mod_range_hashingENS_20_Default_ranged_hashENS_17_Hashtable_traitsILb1ELb0ELb1EEEE5_M_eqEv, symObjAddr: 0x8F98, symBinAddr: 0x10000C9FC, symSize: 0x1C }
  - { offsetInCU: 0x2E32D, offset: 0x2E32D, size: 0x8, addend: 0x0, symName: __ZNSt8__detail16_Hashtable_allocISaINS_10_Hash_nodeISt4pairIKNSt7__cxx1112basic_stringIcSt11char_traitsIcESaIcEEE5TableELb1EEEEE21_M_deallocate_bucketsEPPNS_15_Hash_node_baseEm, symObjAddr: 0x8F20, symBinAddr: 0x10000C984, symSize: 0x78 }
  - { offsetInCU: 0x2E43D, offset: 0x2E43D, size: 0x8, addend: 0x0, symName: __ZNKSt10_HashtableINSt7__cxx1112basic_stringIcSt11char_traitsIcESaIcEEESt4pairIKS5_5TableESaIS9_ENSt8__detail10_Select1stESt8equal_toIS5_ESt4hashIS5_ENSB_18_Mod_range_hashingENSB_20_Default_ranged_hashENSB_20_Prime_rehash_policyENSB_17_Hashtable_traitsILb1ELb0ELb1EEEE21_M_uses_single_bucketEPPNSB_15_Hash_node_baseE, symObjAddr: 0x8EE4, symBinAddr: 0x10000C948, symSize: 0x3C }
  - { offsetInCU: 0x2E478, offset: 0x2E478, size: 0x8, addend: 0x0, symName: __ZNSt8__detail16_Hashtable_allocISaINS_10_Hash_nodeISt4pairIKNSt7__cxx1112basic_stringIcSt11char_traitsIcESaIcEEE5TableELb1EEEEE18_M_deallocate_nodeEPSC_, symObjAddr: 0x8E68, symBinAddr: 0x10000C8CC, symSize: 0x7C }
  - { offsetInCU: 0x2E536, offset: 0x2E536, size: 0x8, addend: 0x0, symName: __ZN9__gnu_cxx16__aligned_membufISt4pairIKNSt7__cxx1112basic_stringIcSt11char_traitsIcESaIcEEE6RecordEE7_M_addrEv, symObjAddr: 0x8E54, symBinAddr: 0x10000C8B8, symSize: 0x14 }
  - { offsetInCU: 0x2E618, offset: 0x2E618, size: 0x8, addend: 0x0, symName: __ZNSt8__detail16_Hashtable_allocISaINS_10_Hash_nodeISt4pairIKNSt7__cxx1112basic_stringIcSt11char_traitsIcESaIcEEESt3anyELb1EEEEEC2ISD_EEOT_, symObjAddr: 0x8E24, symBinAddr: 0x10000C888, symSize: 0x30 }
  - { offsetInCU: 0x2E5E9, offset: 0x2E5E9, size: 0x8, addend: 0x0, symName: __ZNKSt8__detail17_ReuseOrAllocNodeISaINS_10_Hash_nodeISt4pairIKNSt7__cxx1112basic_stringIcSt11char_traitsIcESaIcEEE8DataTypeELb1EEEEEclIJRKSB_EEEPSC_DpOT_, symObjAddr: 0x8C5C, symBinAddr: 0x10000C6C0, symSize: 0x1C8 }
  - { offsetInCU: 0x2E768, offset: 0x2E768, size: 0x8, addend: 0x0, symName: __ZNSt8__detail16_Hashtable_allocISaINS_10_Hash_nodeISt4pairIKNSt7__cxx1112basic_stringIcSt11char_traitsIcESaIcEEE8DataTypeELb1EEEEE22_M_deallocate_node_ptrEPSC_, symObjAddr: 0x8C04, symBinAddr: 0x10000C668, symSize: 0x58 }
  - { offsetInCU: 0x2E823, offset: 0x2E823, size: 0x8, addend: 0x0, symName: __ZNKSt8__detail17_ReuseOrAllocNodeISaINS_10_Hash_nodeISt4pairIKNSt7__cxx1112basic_stringIcSt11char_traitsIcESaIcEEESt3anyELb1EEEEEclIJRKSB_EEEPSC_DpOT_, symObjAddr: 0x8A3C, symBinAddr: 0x10000C4A0, symSize: 0x1C8 }
  - { offsetInCU: 0x2E99E, offset: 0x2E99E, size: 0x8, addend: 0x0, symName: __ZSt11__addressofINSt8__detail20_Prime_rehash_policyEEPT_RS2_, symObjAddr: 0x8A28, symBinAddr: 0x10000C48C, symSize: 0x14 }
  - { offsetInCU: 0x2E9D4, offset: 0x2E9D4, size: 0x8, addend: 0x0, symName: __ZNKSt8__detail15_Hash_code_baseINSt7__cxx1112basic_stringIcSt11char_traitsIcESaIcEEESt4pairIKS6_St3anyENS_10_Select1stESt4hashIS6_ENS_18_Mod_range_hashingENS_20_Default_ranged_hashELb1EE15_M_bucket_indexERKNS_16_Hash_node_valueISA_Lb1EEEm, symObjAddr: 0x89F8, symBinAddr: 0x10000C45C, symSize: 0x30 }
  - { offsetInCU: 0x2EA20, offset: 0x2EA20, size: 0x8, addend: 0x0, symName: __ZNSt10_HashtableINSt7__cxx1112basic_stringIcSt11char_traitsIcESaIcEEESt4pairIKS5_St3anyESaIS9_ENSt8__detail10_Select1stESt8equal_toIS5_ESt4hashIS5_ENSB_18_Mod_range_hashingENSB_20_Default_ranged_hashENSB_20_Prime_rehash_policyENSB_17_Hashtable_traitsILb1ELb0ELb1EEEE16_M_update_bbeginEv, symObjAddr: 0x8990, symBinAddr: 0x10000C3F4, symSize: 0x68 }
  - { offsetInCU: 0x2EA6E, offset: 0x2EA6E, size: 0x8, addend: 0x0, symName: __ZNSt8__detail16_Hashtable_allocISaINS_10_Hash_nodeISt4pairIKNSt7__cxx1112basic_stringIcSt11char_traitsIcESaIcEEESt3anyELb1EEEEE16_M_allocate_nodeIJRKSB_EEEPSC_DpOT_, symObjAddr: 0x881C, symBinAddr: 0x10000C280, symSize: 0x174 }
  - { offsetInCU: 0x2EBDD, offset: 0x2EBDD, size: 0x8, addend: 0x0, symName: __ZSt7forwardIRKSt4pairIKNSt7__cxx1112basic_stringIcSt11char_traitsIcESaIcEEESt3anyEEOT_RNSt16remove_referenceISC_E4typeE, symObjAddr: 0x8808, symBinAddr: 0x10000C26C, symSize: 0x14 }
  - { offsetInCU: 0x2EC16, offset: 0x2EC16, size: 0x8, addend: 0x0, symName: __ZSt4moveIRSt4pairIKNSt7__cxx1112basic_stringIcSt11char_traitsIcESaIcEEESt3anyEEONSt16remove_referenceIT_E4typeEOSC_, symObjAddr: 0x87F4, symBinAddr: 0x10000C258, symSize: 0x14 }
  - { offsetInCU: 0x2EC4C, offset: 0x2EC4C, size: 0x8, addend: 0x0, symName: __ZNSt8__detail16_Hashtable_allocISaINS_10_Hash_nodeISt4pairIKNSt7__cxx1112basic_stringIcSt11char_traitsIcESaIcEEESt3anyELb1EEEEE19_M_allocate_bucketsEm, symObjAddr: 0x8744, symBinAddr: 0x10000C1A8, symSize: 0xB0 }
  - { offsetInCU: 0x2ED73, offset: 0x2ED73, size: 0x8, addend: 0x0, symName: __ZNSt8__detail16_Hashtable_allocISaINS_10_Hash_nodeISt4pairIKNSt7__cxx1112basic_stringIcSt11char_traitsIcESaIcEEESt3anyELb1EEEEE22_M_deallocate_node_ptrEPSC_, symObjAddr: 0x86EC, symBinAddr: 0x10000C150, symSize: 0x58 }
  - { offsetInCU: 0x2EE22, offset: 0x2EE22, size: 0x8, addend: 0x0, symName: __ZNSt8_Rb_treeINSt7__cxx1112basic_stringIcSt11char_traitsIcESaIcEEESt4pairIKS5_6RecordESt10_Select1stIS9_ESt4lessIS5_ESaIS9_EE14_M_insert_nodeEPSt18_Rb_tree_node_baseSH_PSt13_Rb_tree_nodeIS9_E, symObjAddr: 0x861C, symBinAddr: 0x10000C080, symSize: 0xD0 }
  - { offsetInCU: 0x2EE90, offset: 0x2EE90, size: 0x8, addend: 0x0, symName: __ZNSt17_Rb_tree_iteratorISt4pairIKNSt7__cxx1112basic_stringIcSt11char_traitsIcESaIcEEE6RecordEEmmEv, symObjAddr: 0x85EC, symBinAddr: 0x10000C050, symSize: 0x30 }
  - { offsetInCU: 0x2EF3C, offset: 0x2EF3C, size: 0x8, addend: 0x0, symName: __ZNSt4pairIPSt18_Rb_tree_node_baseS1_EC1IRS1_S4_Lb1EEEOT_OT0_, symObjAddr: 0x85A4, symBinAddr: 0x10000C008, symSize: 0x48 }
  - { offsetInCU: 0x2EF4C, offset: 0x2EF4C, size: 0x8, addend: 0x0, symName: __ZNSt8_Rb_treeINSt7__cxx1112basic_stringIcSt11char_traitsIcESaIcEEESt4pairIKS5_6RecordESt10_Select1stIS9_ESt4lessIS5_ESaIS9_EE11_M_leftmostEv, symObjAddr: 0x858C, symBinAddr: 0x10000BFF0, symSize: 0x18 }
  - { offsetInCU: 0x2EF76, offset: 0x2EF76, size: 0x8, addend: 0x0, symName: __ZNSt8_Rb_treeINSt7__cxx1112basic_stringIcSt11char_traitsIcESaIcEEESt4pairIKS5_6RecordESt10_Select1stIS9_ESt4lessIS5_ESaIS9_EE24_M_get_insert_unique_posERS7_, symObjAddr: 0x8434, symBinAddr: 0x10000BE98, symSize: 0x158 }
  - { offsetInCU: 0x2F07C, offset: 0x2F07C, size: 0x8, addend: 0x0, symName: __ZNSt4pairIPSt18_Rb_tree_node_baseS1_EC1IS1_S1_Lb1EEERKS1_S5_, symObjAddr: 0x83F8, symBinAddr: 0x10000BE5C, symSize: 0x3C }
  - { offsetInCU: 0x2F08C, offset: 0x2F08C, size: 0x8, addend: 0x0, symName: __ZNSt8_Rb_treeINSt7__cxx1112basic_stringIcSt11char_traitsIcESaIcEEESt4pairIKS5_6RecordESt10_Select1stIS9_ESt4lessIS5_ESaIS9_EE12_M_rightmostEv, symObjAddr: 0x83E0, symBinAddr: 0x10000BE44, symSize: 0x18 }
  - { offsetInCU: 0x2F0B6, offset: 0x2F0B6, size: 0x8, addend: 0x0, symName: __ZNKSt23_Rb_tree_const_iteratorISt4pairIKNSt7__cxx1112basic_stringIcSt11char_traitsIcESaIcEEE6RecordEE13_M_const_castEv, symObjAddr: 0x83B8, symBinAddr: 0x10000BE1C, symSize: 0x28 }
  - { offsetInCU: 0x2F0E0, offset: 0x2F0E0, size: 0x8, addend: 0x0, symName: __ZNSt8_Rb_treeINSt7__cxx1112basic_stringIcSt11char_traitsIcESaIcEEESt4pairIKS5_6RecordESt10_Select1stIS9_ESt4lessIS5_ESaIS9_EE14_M_create_nodeIJRKSt21piecewise_construct_tSt5tupleIJRS7_EESK_IJEEEEEPSt13_Rb_tree_nodeIS9_EDpOT_, symObjAddr: 0x8348, symBinAddr: 0x10000BDAC, symSize: 0x70 }
  - { offsetInCU: 0x2F1CD, offset: 0x2F1CD, size: 0x8, addend: 0x0, symName: __ZNSt10_Head_baseILm0ERKNSt7__cxx1112basic_stringIcSt11char_traitsIcESaIcEEELb0EEC2ES7_, symObjAddr: 0x8324, symBinAddr: 0x10000BD88, symSize: 0x24 }
  - { offsetInCU: 0x2F1A4, offset: 0x2F1A4, size: 0x8, addend: 0x0, symName: __ZNSt8_Rb_treeINSt7__cxx1112basic_stringIcSt11char_traitsIcESaIcEEESt4pairIKS5_6RecordESt10_Select1stIS9_ESt4lessIS5_ESaIS9_EE6_S_keyEPKSt13_Rb_tree_nodeIS9_E, symObjAddr: 0x82FC, symBinAddr: 0x10000BD60, symSize: 0x28 }
  - { offsetInCU: 0x2F1D2, offset: 0x2F1D2, size: 0x8, addend: 0x0, symName: __ZNSt8_Rb_treeINSt7__cxx1112basic_stringIcSt11char_traitsIcESaIcEEESt4pairIKS5_6RecordESt10_Select1stIS9_ESt4lessIS5_ESaIS9_EE11_M_put_nodeEPSt13_Rb_tree_nodeIS9_E, symObjAddr: 0x82B0, symBinAddr: 0x10000BD14, symSize: 0x4C }
  - { offsetInCU: 0x2F243, offset: 0x2F243, size: 0x8, addend: 0x0, symName: __ZNSt8_Rb_treeINSt7__cxx1112basic_stringIcSt11char_traitsIcESaIcEEESt4pairIKS5_6RecordESt10_Select1stIS9_ESt4lessIS5_ESaIS9_EE15_M_destroy_nodeEPSt13_Rb_tree_nodeIS9_E, symObjAddr: 0x8250, symBinAddr: 0x10000BCB4, symSize: 0x60 }
  - { offsetInCU: 0x2F2D8, offset: 0x2F2D8, size: 0x8, addend: 0x0, symName: __ZN9__gnu_cxx16__aligned_bufferISt4pairIKNSt7__cxx1112basic_stringIcSt11char_traitsIcESaIcEEESt3anyEE6_M_ptrEv, symObjAddr: 0x8234, symBinAddr: 0x10000BC98, symSize: 0x1C }
  - { offsetInCU: 0x2F3B1, offset: 0x2F3B1, size: 0x8, addend: 0x0, symName: __ZNSt8__detail19_Node_iterator_baseISt4pairIKNSt7__cxx1112basic_stringIcSt11char_traitsIcESaIcEEESt3anyELb1EEC2EPNS_10_Hash_nodeISA_Lb1EEE, symObjAddr: 0x8210, symBinAddr: 0x10000BC74, symSize: 0x24 }
  - { offsetInCU: 0x2F359, offset: 0x2F359, size: 0x8, addend: 0x0, symName: __ZNKSt8__detail15_Hashtable_baseINSt7__cxx1112basic_stringIcSt11char_traitsIcESaIcEEESt4pairIKS6_St3anyENS_10_Select1stESt8equal_toIS6_ESt4hashIS6_ENS_18_Mod_range_hashingENS_20_Default_ranged_hashENS_17_Hashtable_traitsILb1ELb0ELb1EEEE13_M_key_equalsERS8_RKNS_16_Hash_node_valueISA_Lb1EEE, symObjAddr: 0x81A4, symBinAddr: 0x10000BC08, symSize: 0x6C }
  - { offsetInCU: 0x2F3EA, offset: 0x2F3EA, size: 0x8, addend: 0x0, symName: __ZNSt10_HashtableINSt7__cxx1112basic_stringIcSt11char_traitsIcESaIcEEESt4pairIKS5_St3anyESaIS9_ENSt8__detail10_Select1stESt8equal_toIS5_ESt4hashIS5_ENSB_18_Mod_range_hashingENSB_20_Default_ranged_hashENSB_20_Prime_rehash_policyENSB_17_Hashtable_traitsILb1ELb0ELb1EEEE22__small_size_thresholdEv, symObjAddr: 0x8190, symBinAddr: 0x10000BBF4, symSize: 0x14 }
  - { offsetInCU: 0x2F405, offset: 0x2F405, size: 0x8, addend: 0x0, symName: __ZNKSt10_HashtableINSt7__cxx1112basic_stringIcSt11char_traitsIcESaIcEEESt4pairIKS5_St3anyESaIS9_ENSt8__detail10_Select1stESt8equal_toIS5_ESt4hashIS5_ENSB_18_Mod_range_hashingENSB_20_Default_ranged_hashENSB_20_Prime_rehash_policyENSB_17_Hashtable_traitsILb1ELb0ELb1EEEE4sizeEv, symObjAddr: 0x8178, symBinAddr: 0x10000BBDC, symSize: 0x18 }
  - { offsetInCU: 0x2F4DD, offset: 0x2F4DD, size: 0x8, addend: 0x0, symName: __ZNSt8__detail14_Node_iteratorISt4pairIKNSt7__cxx1112basic_stringIcSt11char_traitsIcESaIcEEESt3anyELb0ELb1EEC1EPNS_10_Hash_nodeISA_Lb1EEE, symObjAddr: 0x8150, symBinAddr: 0x10000BBB4, symSize: 0x28 }
  - { offsetInCU: 0x2F486, offset: 0x2F486, size: 0x8, addend: 0x0, symName: __ZNSt10_HashtableINSt7__cxx1112basic_stringIcSt11char_traitsIcESaIcEEESt4pairIKS5_St3anyESaIS9_ENSt8__detail10_Select1stESt8equal_toIS5_ESt4hashIS5_ENSB_18_Mod_range_hashingENSB_20_Default_ranged_hashENSB_20_Prime_rehash_policyENSB_17_Hashtable_traitsILb1ELb0ELb1EEEE22_M_insert_bucket_beginEmPNSB_10_Hash_nodeIS9_Lb1EEE, symObjAddr: 0x8044, symBinAddr: 0x10000BAA8, symSize: 0x10C }
  - { offsetInCU: 0x2F4D2, offset: 0x2F4D2, size: 0x8, addend: 0x0, symName: __ZNKSt8__detail15_Hash_code_baseINSt7__cxx1112basic_stringIcSt11char_traitsIcESaIcEEESt4pairIKS6_St3anyENS_10_Select1stESt4hashIS6_ENS_18_Mod_range_hashingENS_20_Default_ranged_hashELb1EE13_M_store_codeERNS_21_Hash_node_code_cacheILb1EEEm, symObjAddr: 0x801C, symBinAddr: 0x10000BA80, symSize: 0x28 }
  - { offsetInCU: 0x2F51E, offset: 0x2F51E, size: 0x8, addend: 0x0, symName: __ZNSt10_HashtableINSt7__cxx1112basic_stringIcSt11char_traitsIcESaIcEEESt4pairIKS5_St3anyESaIS9_ENSt8__detail10_Select1stESt8equal_toIS5_ESt4hashIS5_ENSB_18_Mod_range_hashingENSB_20_Default_ranged_hashENSB_20_Prime_rehash_policyENSB_17_Hashtable_traitsILb1ELb0ELb1EEEE9_M_rehashEmSt17integral_constantIbLb1EE, symObjAddr: 0x7EB0, symBinAddr: 0x10000B914, symSize: 0x16C }
  - { offsetInCU: 0x2F5CB, offset: 0x2F5CB, size: 0x8, addend: 0x0, symName: __ZNSt8__detail16_Hashtable_allocISaINS_10_Hash_nodeISt4pairIKNSt7__cxx1112basic_stringIcSt11char_traitsIcESaIcEEESt3anyELb1EEEEE16_M_allocate_nodeIJRKSt21piecewise_construct_tSt5tupleIJRS9_EESJ_IJEEEEEPSC_DpOT_, symObjAddr: 0x7CC4, symBinAddr: 0x10000B728, symSize: 0x1EC }
  - { offsetInCU: 0x2F800, offset: 0x2F800, size: 0x8, addend: 0x0, symName: __ZNSt8__detail10_Hash_nodeISt4pairIKNSt7__cxx1112basic_stringIcSt11char_traitsIcESaIcEEESt3anyELb1EEC1Ev, symObjAddr: 0x7CA4, symBinAddr: 0x10000B708, symSize: 0x20 }
  - { offsetInCU: 0x2F7C1, offset: 0x2F7C1, size: 0x8, addend: 0x0, symName: __ZNKSt10_HashtableINSt7__cxx1112basic_stringIcSt11char_traitsIcESaIcEEESt4pairIKS5_St3anyESaIS9_ENSt8__detail10_Select1stESt8equal_toIS5_ESt4hashIS5_ENSB_18_Mod_range_hashingENSB_20_Default_ranged_hashENSB_20_Prime_rehash_policyENSB_17_Hashtable_traitsILb1ELb0ELb1EEEE19_M_find_before_nodeEmRS7_m, symObjAddr: 0x7BA8, symBinAddr: 0x10000B60C, symSize: 0xFC }
  - { offsetInCU: 0x2F853, offset: 0x2F853, size: 0x8, addend: 0x0, symName: __ZNKSt8__detail15_Hash_code_baseINSt7__cxx1112basic_stringIcSt11char_traitsIcESaIcEEESt4pairIKS6_St3anyENS_10_Select1stESt4hashIS6_ENS_18_Mod_range_hashingENS_20_Default_ranged_hashELb1EE15_M_bucket_indexEmm, symObjAddr: 0x7B7C, symBinAddr: 0x10000B5E0, symSize: 0x2C }
  - { offsetInCU: 0x2F89F, offset: 0x2F89F, size: 0x8, addend: 0x0, symName: __ZNKSt8__detail15_Hash_code_baseINSt7__cxx1112basic_stringIcSt11char_traitsIcESaIcEEESt4pairIKS6_St3anyENS_10_Select1stESt4hashIS6_ENS_18_Mod_range_hashingENS_20_Default_ranged_hashELb1EE7_M_hashEv, symObjAddr: 0x7B60, symBinAddr: 0x10000B5C4, symSize: 0x1C }
  - { offsetInCU: 0x2F8C9, offset: 0x2F8C9, size: 0x8, addend: 0x0, symName: __ZNKSt8__detail15_Hash_code_baseINSt7__cxx1112basic_stringIcSt11char_traitsIcESaIcEEESt4pairIKS6_8DataTypeENS_10_Select1stESt4hashIS6_ENS_18_Mod_range_hashingENS_20_Default_ranged_hashELb1EE15_M_bucket_indexERKNS_16_Hash_node_valueISA_Lb1EEEm, symObjAddr: 0x7B30, symBinAddr: 0x10000B594, symSize: 0x30 }
  - { offsetInCU: 0x2F915, offset: 0x2F915, size: 0x8, addend: 0x0, symName: __ZNSt8__detail16_Hashtable_allocISaINS_10_Hash_nodeISt4pairIKNSt7__cxx1112basic_stringIcSt11char_traitsIcESaIcEEE8DataTypeELb1EEEEE16_M_allocate_nodeIJRKSB_EEEPSC_DpOT_, symObjAddr: 0x79BC, symBinAddr: 0x10000B420, symSize: 0x174 }
  - { offsetInCU: 0x2FA84, offset: 0x2FA84, size: 0x8, addend: 0x0, symName: __ZSt7forwardIRKSt4pairIKNSt7__cxx1112basic_stringIcSt11char_traitsIcESaIcEEE8DataTypeEEOT_RNSt16remove_referenceISC_E4typeE, symObjAddr: 0x79A8, symBinAddr: 0x10000B40C, symSize: 0x14 }
  - { offsetInCU: 0x2FABD, offset: 0x2FABD, size: 0x8, addend: 0x0, symName: __ZSt4moveIRSt4pairIKNSt7__cxx1112basic_stringIcSt11char_traitsIcESaIcEEE8DataTypeEEONSt16remove_referenceIT_E4typeEOSC_, symObjAddr: 0x7994, symBinAddr: 0x10000B3F8, symSize: 0x14 }
  - { offsetInCU: 0x2FAF3, offset: 0x2FAF3, size: 0x8, addend: 0x0, symName: __ZNSt8__detail16_Hashtable_allocISaINS_10_Hash_nodeISt4pairIKNSt7__cxx1112basic_stringIcSt11char_traitsIcESaIcEEE8DataTypeELb1EEEEE19_M_allocate_bucketsEm, symObjAddr: 0x78E4, symBinAddr: 0x10000B348, symSize: 0xB0 }
  - { offsetInCU: 0x2FC3D, offset: 0x2FC3D, size: 0x8, addend: 0x0, symName: __ZNSt8__detail16_Hashtable_allocISaINS_10_Hash_nodeISt4pairIKNSt7__cxx1112basic_stringIcSt11char_traitsIcESaIcEEE8DataTypeELb1EEEEE21_M_deallocate_bucketsEPPNS_15_Hash_node_baseEm, symObjAddr: 0x786C, symBinAddr: 0x10000B2D0, symSize: 0x78 }
  - { offsetInCU: 0x2FD4D, offset: 0x2FD4D, size: 0x8, addend: 0x0, symName: __ZNKSt10_HashtableINSt7__cxx1112basic_stringIcSt11char_traitsIcESaIcEEESt4pairIKS5_8DataTypeESaIS9_ENSt8__detail10_Select1stESt8equal_toIS5_ESt4hashIS5_ENSB_18_Mod_range_hashingENSB_20_Default_ranged_hashENSB_20_Prime_rehash_policyENSB_17_Hashtable_traitsILb1ELb0ELb1EEEE21_M_uses_single_bucketEPPNSB_15_Hash_node_baseE, symObjAddr: 0x7830, symBinAddr: 0x10000B294, symSize: 0x3C }
  - { offsetInCU: 0x2FD88, offset: 0x2FD88, size: 0x8, addend: 0x0, symName: __ZNSt8__detail16_Hashtable_allocISaINS_10_Hash_nodeISt4pairIKNSt7__cxx1112basic_stringIcSt11char_traitsIcESaIcEEESt3anyELb1EEEEE21_M_deallocate_bucketsEPPNS_15_Hash_node_baseEm, symObjAddr: 0x77B8, symBinAddr: 0x10000B21C, symSize: 0x78 }
  - { offsetInCU: 0x2FE98, offset: 0x2FE98, size: 0x8, addend: 0x0, symName: __ZNKSt10_HashtableINSt7__cxx1112basic_stringIcSt11char_traitsIcESaIcEEESt4pairIKS5_St3anyESaIS9_ENSt8__detail10_Select1stESt8equal_toIS5_ESt4hashIS5_ENSB_18_Mod_range_hashingENSB_20_Default_ranged_hashENSB_20_Prime_rehash_policyENSB_17_Hashtable_traitsILb1ELb0ELb1EEEE21_M_uses_single_bucketEPPNSB_15_Hash_node_baseE, symObjAddr: 0x777C, symBinAddr: 0x10000B1E0, symSize: 0x3C }
  - { offsetInCU: 0x2FF85, offset: 0x2FF85, size: 0x8, addend: 0x0, symName: __ZNSt8__detail19_Node_iterator_baseISt4pairIKNSt7__cxx1112basic_stringIcSt11char_traitsIcESaIcEEE8DataTypeELb1EEC2EPNS_10_Hash_nodeISA_Lb1EEE, symObjAddr: 0x7758, symBinAddr: 0x10000B1BC, symSize: 0x24 }
  - { offsetInCU: 0x2FF2A, offset: 0x2FF2A, size: 0x8, addend: 0x0, symName: __ZNKSt8equal_toINSt7__cxx1112basic_stringIcSt11char_traitsIcESaIcEEEEclERKS5_S8_, symObjAddr: 0x7730, symBinAddr: 0x10000B194, symSize: 0x28 }
  - { offsetInCU: 0x2FF76, offset: 0x2FF76, size: 0x8, addend: 0x0, symName: __ZNKSt8__detail10_Select1stclIRKSt4pairIKNSt7__cxx1112basic_stringIcSt11char_traitsIcESaIcEEE8DataTypeEEEONS0_10__1st_typeIT_E4typeEOSF_, symObjAddr: 0x7710, symBinAddr: 0x10000B174, symSize: 0x20 }
  - { offsetInCU: 0x2FFCF, offset: 0x2FFCF, size: 0x8, addend: 0x0, symName: __ZNKSt8__detail15_Hashtable_baseINSt7__cxx1112basic_stringIcSt11char_traitsIcESaIcEEESt4pairIKS6_8DataTypeENS_10_Select1stESt8equal_toIS6_ESt4hashIS6_ENS_18_Mod_range_hashingENS_20_Default_ranged_hashENS_17_Hashtable_traitsILb1ELb0ELb1EEEE5_M_eqEv, symObjAddr: 0x76F4, symBinAddr: 0x10000B158, symSize: 0x1C }
  - { offsetInCU: 0x2FFF6, offset: 0x2FFF6, size: 0x8, addend: 0x0, symName: __ZNSt8__detail22_Hashtable_hash_traitsISt4hashINSt7__cxx1112basic_stringIcSt11char_traitsIcESaIcEEEEE22__small_size_thresholdEv, symObjAddr: 0x76EC, symBinAddr: 0x10000B150, symSize: 0x8 }
  - { offsetInCU: 0x300C2, offset: 0x300C2, size: 0x8, addend: 0x0, symName: __ZNSt8__detail14_Node_iteratorISt4pairIKNSt7__cxx1112basic_stringIcSt11char_traitsIcESaIcEEE8DataTypeELb0ELb1EEC1EPNS_10_Hash_nodeISA_Lb1EEE, symObjAddr: 0x76C4, symBinAddr: 0x10000B128, symSize: 0x28 }
  - { offsetInCU: 0x30068, offset: 0x30068, size: 0x8, addend: 0x0, symName: __ZNSt10_HashtableINSt7__cxx1112basic_stringIcSt11char_traitsIcESaIcEEESt4pairIKS5_8DataTypeESaIS9_ENSt8__detail10_Select1stESt8equal_toIS5_ESt4hashIS5_ENSB_18_Mod_range_hashingENSB_20_Default_ranged_hashENSB_20_Prime_rehash_policyENSB_17_Hashtable_traitsILb1ELb0ELb1EEEE22_M_insert_bucket_beginEmPNSB_10_Hash_nodeIS9_Lb1EEE, symObjAddr: 0x75B8, symBinAddr: 0x10000B01C, symSize: 0x10C }
  - { offsetInCU: 0x300B4, offset: 0x300B4, size: 0x8, addend: 0x0, symName: __ZNKSt8__detail15_Hash_code_baseINSt7__cxx1112basic_stringIcSt11char_traitsIcESaIcEEESt4pairIKS6_8DataTypeENS_10_Select1stESt4hashIS6_ENS_18_Mod_range_hashingENS_20_Default_ranged_hashELb1EE13_M_store_codeERNS_21_Hash_node_code_cacheILb1EEEm, symObjAddr: 0x7590, symBinAddr: 0x10000AFF4, symSize: 0x28 }
  - { offsetInCU: 0x30100, offset: 0x30100, size: 0x8, addend: 0x0, symName: __ZNSt10_HashtableINSt7__cxx1112basic_stringIcSt11char_traitsIcESaIcEEESt4pairIKS5_8DataTypeESaIS9_ENSt8__detail10_Select1stESt8equal_toIS5_ESt4hashIS5_ENSB_18_Mod_range_hashingENSB_20_Default_ranged_hashENSB_20_Prime_rehash_policyENSB_17_Hashtable_traitsILb1ELb0ELb1EEEE9_M_rehashEmSt17integral_constantIbLb1EE, symObjAddr: 0x7424, symBinAddr: 0x10000AE88, symSize: 0x16C }
  - { offsetInCU: 0x301AD, offset: 0x301AD, size: 0x8, addend: 0x0, symName: __ZNSt8__detail16_Hashtable_allocISaINS_10_Hash_nodeISt4pairIKNSt7__cxx1112basic_stringIcSt11char_traitsIcESaIcEEE8DataTypeELb1EEEEE16_M_allocate_nodeIJRKSt21piecewise_construct_tSt5tupleIJRS9_EESJ_IJEEEEEPSC_DpOT_, symObjAddr: 0x7238, symBinAddr: 0x10000AC9C, symSize: 0x1EC }
  - { offsetInCU: 0x303E5, offset: 0x303E5, size: 0x8, addend: 0x0, symName: __ZNSt8__detail10_Hash_nodeISt4pairIKNSt7__cxx1112basic_stringIcSt11char_traitsIcESaIcEEE8DataTypeELb1EEC1Ev, symObjAddr: 0x7218, symBinAddr: 0x10000AC7C, symSize: 0x20 }
  - { offsetInCU: 0x303B9, offset: 0x303B9, size: 0x8, addend: 0x0, symName: __ZNKSt10_HashtableINSt7__cxx1112basic_stringIcSt11char_traitsIcESaIcEEESt4pairIKS5_8DataTypeESaIS9_ENSt8__detail10_Select1stESt8equal_toIS5_ESt4hashIS5_ENSB_18_Mod_range_hashingENSB_20_Default_ranged_hashENSB_20_Prime_rehash_policyENSB_17_Hashtable_traitsILb1ELb0ELb1EEEE19_M_find_before_nodeEmRS7_m, symObjAddr: 0x711C, symBinAddr: 0x10000AB80, symSize: 0xFC }
  - { offsetInCU: 0x3044B, offset: 0x3044B, size: 0x8, addend: 0x0, symName: __ZNKSt8__detail15_Hash_code_baseINSt7__cxx1112basic_stringIcSt11char_traitsIcESaIcEEESt4pairIKS6_8DataTypeENS_10_Select1stESt4hashIS6_ENS_18_Mod_range_hashingENS_20_Default_ranged_hashELb1EE15_M_bucket_indexEmm, symObjAddr: 0x70F0, symBinAddr: 0x10000AB54, symSize: 0x2C }
  - { offsetInCU: 0x30497, offset: 0x30497, size: 0x8, addend: 0x0, symName: __ZNKSt15__str_hash_baseIcSaIcENSt7__cxx1112basic_stringIcSt11char_traitsIcES0_EEEclERKS5_, symObjAddr: 0x70A8, symBinAddr: 0x10000AB0C, symSize: 0x48 }
  - { offsetInCU: 0x304D2, offset: 0x304D2, size: 0x8, addend: 0x0, symName: __ZNKSt8__detail15_Hash_code_baseINSt7__cxx1112basic_stringIcSt11char_traitsIcESaIcEEESt4pairIKS6_8DataTypeENS_10_Select1stESt4hashIS6_ENS_18_Mod_range_hashingENS_20_Default_ranged_hashELb1EE7_M_hashEv, symObjAddr: 0x708C, symBinAddr: 0x10000AAF0, symSize: 0x1C }
  - { offsetInCU: 0x304F8, offset: 0x304F8, size: 0x8, addend: 0x0, symName: __ZNSt3any17_Manager_externalINSt7__cxx1112basic_stringIcSt11char_traitsIcESaIcEEEE9_S_accessERKNS_8_StorageE, symObjAddr: 0x7074, symBinAddr: 0x10000AAD8, symSize: 0x18 }
  - { offsetInCU: 0x30556, offset: 0x30556, size: 0x8, addend: 0x0, symName: __ZNSt22_Optional_payload_baseI6RecordE6_M_getEv, symObjAddr: 0x7060, symBinAddr: 0x10000AAC4, symSize: 0x14 }
  - { offsetInCU: 0x30583, offset: 0x30583, size: 0x8, addend: 0x0, symName: __ZSt4moveIRiEONSt16remove_referenceIT_E4typeEOS2_, symObjAddr: 0x704C, symBinAddr: 0x10000AAB0, symSize: 0x14 }
  - { offsetInCU: 0x305E6, offset: 0x305E6, size: 0x8, addend: 0x0, symName: __ZNSt8_Rb_treeINSt7__cxx1112basic_stringIcSt11char_traitsIcESaIcEEESt4pairIKS5_6RecordESt10_Select1stIS9_ESt4lessIS5_ESaIS9_EE21_M_get_Node_allocatorEv, symObjAddr: 0x7038, symBinAddr: 0x10000AA9C, symSize: 0x14 }
  - { offsetInCU: 0x30610, offset: 0x30610, size: 0x8, addend: 0x0, symName: __ZNSt8_Rb_treeINSt7__cxx1112basic_stringIcSt11char_traitsIcESaIcEEESt4pairIKS5_6RecordESt10_Select1stIS9_ESt4lessIS5_ESaIS9_EE12_M_move_dataERSF_St17integral_constantIbLb1EE, symObjAddr: 0x6FFC, symBinAddr: 0x10000AA60, symSize: 0x3C }
  - { offsetInCU: 0x30654, offset: 0x30654, size: 0x8, addend: 0x0, symName: __ZNSt8_Rb_treeINSt7__cxx1112basic_stringIcSt11char_traitsIcESaIcEEESt4pairIKS5_6RecordESt10_Select1stIS9_ESt4lessIS5_ESaIS9_EE5clearEv, symObjAddr: 0x6FC4, symBinAddr: 0x10000AA28, symSize: 0x38 }
  - { offsetInCU: 0x3067E, offset: 0x3067E, size: 0x8, addend: 0x0, symName: __ZNSt10_HashtableINSt7__cxx1112basic_stringIcSt11char_traitsIcESaIcEEESt4pairIKS5_8DataTypeESaIS9_ENSt8__detail10_Select1stESt8equal_toIS5_ESt4hashIS5_ENSB_18_Mod_range_hashingENSB_20_Default_ranged_hashENSB_20_Prime_rehash_policyENSB_17_Hashtable_traitsILb1ELb0ELb1EEEE16_M_update_bbeginEv, symObjAddr: 0x6F5C, symBinAddr: 0x10000A9C0, symSize: 0x68 }
  - { offsetInCU: 0x306F9, offset: 0x306F9, size: 0x8, addend: 0x0, symName: __ZNKSt10_HashtableINSt7__cxx1112basic_stringIcSt11char_traitsIcESaIcEEESt4pairIKS5_8DataTypeESaIS9_ENSt8__detail10_Select1stESt8equal_toIS5_ESt4hashIS5_ENSB_18_Mod_range_hashingENSB_20_Default_ranged_hashENSB_20_Prime_rehash_policyENSB_17_Hashtable_traitsILb1ELb0ELb1EEEE21_M_uses_single_bucketEv, symObjAddr: 0x6F34, symBinAddr: 0x10000A998, symSize: 0x28 }
  - { offsetInCU: 0x30723, offset: 0x30723, size: 0x8, addend: 0x0, symName: __ZNKSt8__detail14_Node_iteratorISt4pairIKNSt7__cxx1112basic_stringIcSt11char_traitsIcESaIcEEE5TableELb0ELb1EEptEv, symObjAddr: 0x6F04, symBinAddr: 0x10000A968, symSize: 0x30 }
  - { offsetInCU: 0x30771, offset: 0x30771, size: 0x8, addend: 0x0, symName: __ZNSt10_HashtableINSt7__cxx1112basic_stringIcSt11char_traitsIcESaIcEEESt4pairIKS5_5TableESaIS9_ENSt8__detail10_Select1stESt8equal_toIS5_ESt4hashIS5_ENSB_18_Mod_range_hashingENSB_20_Default_ranged_hashENSB_20_Prime_rehash_policyENSB_17_Hashtable_traitsILb1ELb0ELb1EEEE21_M_insert_unique_nodeEmmPNSB_10_Hash_nodeIS9_Lb1EEEm, symObjAddr: 0x6DF4, symBinAddr: 0x10000A858, symSize: 0x110 }
  - { offsetInCU: 0x30942, offset: 0x30942, size: 0x8, addend: 0x0, symName: __ZNSt10_HashtableINSt7__cxx1112basic_stringIcSt11char_traitsIcESaIcEEESt4pairIKS5_5TableESaIS9_ENSt8__detail10_Select1stESt8equal_toIS5_ESt4hashIS5_ENSB_18_Mod_range_hashingENSB_20_Default_ranged_hashENSB_20_Prime_rehash_policyENSB_17_Hashtable_traitsILb1ELb0ELb1EEEE12_Scoped_nodeD1Ev, symObjAddr: 0x6DB0, symBinAddr: 0x10000A814, symSize: 0x44 }
  - { offsetInCU: 0x30A2D, offset: 0x30A2D, size: 0x8, addend: 0x0, symName: __ZNSt10_HashtableINSt7__cxx1112basic_stringIcSt11char_traitsIcESaIcEEESt4pairIKS5_5TableESaIS9_ENSt8__detail10_Select1stESt8equal_toIS5_ESt4hashIS5_ENSB_18_Mod_range_hashingENSB_20_Default_ranged_hashENSB_20_Prime_rehash_policyENSB_17_Hashtable_traitsILb1ELb0ELb1EEEE12_Scoped_nodeC1IJRKSt21piecewise_construct_tSt5tupleIJRS7_EESS_IJEEEEEPNSB_16_Hashtable_allocISaINSB_10_Hash_nodeIS9_Lb1EEEEEEDpOT_, symObjAddr: 0x6D28, symBinAddr: 0x10000A78C, symSize: 0x88 }
  - { offsetInCU: 0x3091D, offset: 0x3091D, size: 0x8, addend: 0x0, symName: __ZNKSt10_HashtableINSt7__cxx1112basic_stringIcSt11char_traitsIcESaIcEEESt4pairIKS5_5TableESaIS9_ENSt8__detail10_Select1stESt8equal_toIS5_ESt4hashIS5_ENSB_18_Mod_range_hashingENSB_20_Default_ranged_hashENSB_20_Prime_rehash_policyENSB_17_Hashtable_traitsILb1ELb0ELb1EEEE12_M_find_nodeEmRS7_m, symObjAddr: 0x6CD4, symBinAddr: 0x10000A738, symSize: 0x54 }
  - { offsetInCU: 0x3098B, offset: 0x3098B, size: 0x8, addend: 0x0, symName: __ZNKSt10_HashtableINSt7__cxx1112basic_stringIcSt11char_traitsIcESaIcEEESt4pairIKS5_5TableESaIS9_ENSt8__detail10_Select1stESt8equal_toIS5_ESt4hashIS5_ENSB_18_Mod_range_hashingENSB_20_Default_ranged_hashENSB_20_Prime_rehash_policyENSB_17_Hashtable_traitsILb1ELb0ELb1EEEE15_M_bucket_indexEm, symObjAddr: 0x6CA4, symBinAddr: 0x10000A708, symSize: 0x30 }
  - { offsetInCU: 0x309C6, offset: 0x309C6, size: 0x8, addend: 0x0, symName: __ZNKSt8__detail15_Hash_code_baseINSt7__cxx1112basic_stringIcSt11char_traitsIcESaIcEEESt4pairIKS6_5TableENS_10_Select1stESt4hashIS6_ENS_18_Mod_range_hashingENS_20_Default_ranged_hashELb1EE12_M_hash_codeERS8_, symObjAddr: 0x6C7C, symBinAddr: 0x10000A6E0, symSize: 0x28 }
  - { offsetInCU: 0x30AAF, offset: 0x30AAF, size: 0x8, addend: 0x0, symName: __ZNSt8__detail14_Node_iteratorISt4pairIKNSt7__cxx1112basic_stringIcSt11char_traitsIcESaIcEEE5TableELb0ELb1EEC1EPNS_10_Hash_nodeISA_Lb1EEE, symObjAddr: 0x6C54, symBinAddr: 0x10000A6B8, symSize: 0x28 }
  - { offsetInCU: 0x30A58, offset: 0x30A58, size: 0x8, addend: 0x0, symName: __ZNKSt8__detail15_Hashtable_baseINSt7__cxx1112basic_stringIcSt11char_traitsIcESaIcEEESt4pairIKS6_5TableENS_10_Select1stESt8equal_toIS6_ESt4hashIS6_ENS_18_Mod_range_hashingENS_20_Default_ranged_hashENS_17_Hashtable_traitsILb1ELb0ELb1EEEE13_M_key_equalsERS8_RKNS_16_Hash_node_valueISA_Lb1EEE, symObjAddr: 0x6BE8, symBinAddr: 0x10000A64C, symSize: 0x6C }
  - { offsetInCU: 0x30AEC, offset: 0x30AEC, size: 0x8, addend: 0x0, symName: __ZNKSt8__detail10_Hash_nodeISt4pairIKNSt7__cxx1112basic_stringIcSt11char_traitsIcESaIcEEE5TableELb1EE7_M_nextEv, symObjAddr: 0x6BD0, symBinAddr: 0x10000A634, symSize: 0x18 }
  - { offsetInCU: 0x30B13, offset: 0x30B13, size: 0x8, addend: 0x0, symName: __ZNSt10_HashtableINSt7__cxx1112basic_stringIcSt11char_traitsIcESaIcEEESt4pairIKS5_5TableESaIS9_ENSt8__detail10_Select1stESt8equal_toIS5_ESt4hashIS5_ENSB_18_Mod_range_hashingENSB_20_Default_ranged_hashENSB_20_Prime_rehash_policyENSB_17_Hashtable_traitsILb1ELb0ELb1EEEE22__small_size_thresholdEv, symObjAddr: 0x6BBC, symBinAddr: 0x10000A620, symSize: 0x14 }
  - { offsetInCU: 0x30B2E, offset: 0x30B2E, size: 0x8, addend: 0x0, symName: __ZNKSt10_HashtableINSt7__cxx1112basic_stringIcSt11char_traitsIcESaIcEEESt4pairIKS5_5TableESaIS9_ENSt8__detail10_Select1stESt8equal_toIS5_ESt4hashIS5_ENSB_18_Mod_range_hashingENSB_20_Default_ranged_hashENSB_20_Prime_rehash_policyENSB_17_Hashtable_traitsILb1ELb0ELb1EEEE4sizeEv, symObjAddr: 0x6BA4, symBinAddr: 0x10000A608, symSize: 0x18 }
  - { offsetInCU: 0x30B58, offset: 0x30B58, size: 0x8, addend: 0x0, symName: __ZNSt10_HashtableINSt7__cxx1112basic_stringIcSt11char_traitsIcESaIcEEESt4pairIKS5_5TableESaIS9_ENSt8__detail10_Select1stESt8equal_toIS5_ESt4hashIS5_ENSB_18_Mod_range_hashingENSB_20_Default_ranged_hashENSB_20_Prime_rehash_policyENSB_17_Hashtable_traitsILb1ELb0ELb1EEEE21_M_deallocate_bucketsEPPNSB_15_Hash_node_baseEm, symObjAddr: 0x6B58, symBinAddr: 0x10000A5BC, symSize: 0x4C }
  - { offsetInCU: 0x30BA4, offset: 0x30BA4, size: 0x8, addend: 0x0, symName: __ZNSt8__detail16_Hashtable_allocISaINS_10_Hash_nodeISt4pairIKNSt7__cxx1112basic_stringIcSt11char_traitsIcESaIcEEE5TableELb1EEEEE19_M_deallocate_nodesEPSC_, symObjAddr: 0x6B08, symBinAddr: 0x10000A56C, symSize: 0x50 }
  - { offsetInCU: 0x30C03, offset: 0x30C03, size: 0x8, addend: 0x0, symName: __ZNKSt10_HashtableINSt7__cxx1112basic_stringIcSt11char_traitsIcESaIcEEESt4pairIKS5_5TableESaIS9_ENSt8__detail10_Select1stESt8equal_toIS5_ESt4hashIS5_ENSB_18_Mod_range_hashingENSB_20_Default_ranged_hashENSB_20_Prime_rehash_policyENSB_17_Hashtable_traitsILb1ELb0ELb1EEEE8_M_beginEv, symObjAddr: 0x6AF0, symBinAddr: 0x10000A554, symSize: 0x18 }
  - { offsetInCU: 0x30C43, offset: 0x30C43, size: 0x8, addend: 0x0, symName: __ZN9__gnu_cxx16__aligned_membufISt4pairIKNSt7__cxx1112basic_stringIcSt11char_traitsIcESaIcEEE6RecordEE6_M_ptrEv, symObjAddr: 0x6AD4, symBinAddr: 0x10000A538, symSize: 0x1C }
  - { offsetInCU: 0x30C6D, offset: 0x30C6D, size: 0x8, addend: 0x0, symName: __ZNKSt8_Rb_treeINSt7__cxx1112basic_stringIcSt11char_traitsIcESaIcEEESt4pairIKS5_6RecordESt10_Select1stIS9_ESt4lessIS5_ESaIS9_EE4sizeEv, symObjAddr: 0x6ABC, symBinAddr: 0x10000A520, symSize: 0x18 }
  - { offsetInCU: 0x30C97, offset: 0x30C97, size: 0x8, addend: 0x0, symName: __ZNSt22_Optional_payload_baseI6RecordE10_M_destroyEv, symObjAddr: 0x6A94, symBinAddr: 0x10000A4F8, symSize: 0x28 }
  - { offsetInCU: 0x30E0A, offset: 0x30E0A, size: 0x8, addend: 0x0, symName: __ZNSt10_HashtableINSt7__cxx1112basic_stringIcSt11char_traitsIcESaIcEEESt4pairIKS5_St3anyESaIS9_ENSt8__detail10_Select1stESt8equal_toIS5_ESt4hashIS5_ENSB_18_Mod_range_hashingENSB_20_Default_ranged_hashENSB_20_Prime_rehash_policyENSB_17_Hashtable_traitsILb1ELb0ELb1EEEEC1ERKSM_, symObjAddr: 0x6978, symBinAddr: 0x10000A3DC, symSize: 0x11C }
  - { offsetInCU: 0x30E3A, offset: 0x30E3A, size: 0x8, addend: 0x0, symName: __ZNSt10_HashtableINSt7__cxx1112basic_stringIcSt11char_traitsIcESaIcEEESt4pairIKS5_8DataTypeESaIS9_ENSt8__detail10_Select1stESt8equal_toIS5_ESt4hashIS5_ENSB_18_Mod_range_hashingENSB_20_Default_ranged_hashENSB_20_Prime_rehash_policyENSB_17_Hashtable_traitsILb1ELb0ELb1EEEE9_M_assignIRKSM_NSB_17_ReuseOrAllocNodeISaINSB_10_Hash_nodeIS9_Lb1EEEEEEEEvOT_RKT0_, symObjAddr: 0x6778, symBinAddr: 0x10000A1DC, symSize: 0x200 }
  - { offsetInCU: 0x31044, offset: 0x31044, size: 0x8, addend: 0x0, symName: __ZNSt8__detail17_ReuseOrAllocNodeISaINS_10_Hash_nodeISt4pairIKNSt7__cxx1112basic_stringIcSt11char_traitsIcESaIcEEE8DataTypeELb1EEEEED1Ev, symObjAddr: 0x6744, symBinAddr: 0x10000A1A8, symSize: 0x34 }
  - { offsetInCU: 0x310BD, offset: 0x310BD, size: 0x8, addend: 0x0, symName: __ZNSt8__detail17_ReuseOrAllocNodeISaINS_10_Hash_nodeISt4pairIKNSt7__cxx1112basic_stringIcSt11char_traitsIcESaIcEEE8DataTypeELb1EEEEEC1EPSC_RNS_16_Hashtable_allocISD_EE, symObjAddr: 0x6710, symBinAddr: 0x10000A174, symSize: 0x34 }
  - { offsetInCU: 0x31054, offset: 0x31054, size: 0x8, addend: 0x0, symName: __ZSt7forwardIRKSt10_HashtableINSt7__cxx1112basic_stringIcSt11char_traitsIcESaIcEEESt4pairIKS6_8DataTypeESaISA_ENSt8__detail10_Select1stESt8equal_toIS6_ESt4hashIS6_ENSC_18_Mod_range_hashingENSC_20_Default_ranged_hashENSC_20_Prime_rehash_policyENSC_17_Hashtable_traitsILb1ELb0ELb1EEEEEOT_RNSt16remove_referenceISQ_E4typeE, symObjAddr: 0x66FC, symBinAddr: 0x10000A160, symSize: 0x14 }
  - { offsetInCU: 0x3108A, offset: 0x3108A, size: 0x8, addend: 0x0, symName: __ZNSt8__detail16_Hashtable_allocISaINS_10_Hash_nodeISt4pairIKNSt7__cxx1112basic_stringIcSt11char_traitsIcESaIcEEE8DataTypeELb1EEEEE18_M_deallocate_nodeEPSC_, symObjAddr: 0x6680, symBinAddr: 0x10000A0E4, symSize: 0x7C }
  - { offsetInCU: 0x31143, offset: 0x31143, size: 0x8, addend: 0x0, symName: __ZNSt8__detail21_Hashtable_ebo_helperILi0ESaINS_10_Hash_nodeISt4pairIKNSt7__cxx1112basic_stringIcSt11char_traitsIcESaIcEEE8DataTypeELb1EEEELb1EE6_M_getEv, symObjAddr: 0x666C, symBinAddr: 0x10000A0D0, symSize: 0x14 }
  - { offsetInCU: 0x3116D, offset: 0x3116D, size: 0x8, addend: 0x0, symName: __ZNSt10_HashtableINSt7__cxx1112basic_stringIcSt11char_traitsIcESaIcEEESt4pairIKS5_St3anyESaIS9_ENSt8__detail10_Select1stESt8equal_toIS5_ESt4hashIS5_ENSB_18_Mod_range_hashingENSB_20_Default_ranged_hashENSB_20_Prime_rehash_policyENSB_17_Hashtable_traitsILb1ELb0ELb1EEEE9_M_assignIRKSM_NSB_17_ReuseOrAllocNodeISaINSB_10_Hash_nodeIS9_Lb1EEEEEEEEvOT_RKT0_, symObjAddr: 0x646C, symBinAddr: 0x100009ED0, symSize: 0x200 }
  - { offsetInCU: 0x31374, offset: 0x31374, size: 0x8, addend: 0x0, symName: __ZNSt8__detail17_ReuseOrAllocNodeISaINS_10_Hash_nodeISt4pairIKNSt7__cxx1112basic_stringIcSt11char_traitsIcESaIcEEESt3anyELb1EEEEED1Ev, symObjAddr: 0x6438, symBinAddr: 0x100009E9C, symSize: 0x34 }
  - { offsetInCU: 0x313ED, offset: 0x313ED, size: 0x8, addend: 0x0, symName: __ZNSt8__detail17_ReuseOrAllocNodeISaINS_10_Hash_nodeISt4pairIKNSt7__cxx1112basic_stringIcSt11char_traitsIcESaIcEEESt3anyELb1EEEEEC1EPSC_RNS_16_Hashtable_allocISD_EE, symObjAddr: 0x6404, symBinAddr: 0x100009E68, symSize: 0x34 }
  - { offsetInCU: 0x31387, offset: 0x31387, size: 0x8, addend: 0x0, symName: __ZSt7forwardIRKSt10_HashtableINSt7__cxx1112basic_stringIcSt11char_traitsIcESaIcEEESt4pairIKS6_St3anyESaISA_ENSt8__detail10_Select1stESt8equal_toIS6_ESt4hashIS6_ENSC_18_Mod_range_hashingENSC_20_Default_ranged_hashENSC_20_Prime_rehash_policyENSC_17_Hashtable_traitsILb1ELb0ELb1EEEEEOT_RNSt16remove_referenceISQ_E4typeE, symObjAddr: 0x63F0, symBinAddr: 0x100009E54, symSize: 0x14 }
  - { offsetInCU: 0x3141F, offset: 0x3141F, size: 0x8, addend: 0x0, symName: __ZNSt8__detail17_RehashStateGuardINS_20_Prime_rehash_policyEED1Ev, symObjAddr: 0x63AC, symBinAddr: 0x100009E10, symSize: 0x44 }
  - { offsetInCU: 0x31470, offset: 0x31470, size: 0x8, addend: 0x0, symName: __ZNSt8__detail17_RehashStateGuardINS_20_Prime_rehash_policyEEC1ERS1_, symObjAddr: 0x6368, symBinAddr: 0x100009DCC, symSize: 0x44 }
  - { offsetInCU: 0x3145E, offset: 0x3145E, size: 0x8, addend: 0x0, symName: __ZNKSt10_HashtableINSt7__cxx1112basic_stringIcSt11char_traitsIcESaIcEEESt4pairIKS5_St3anyESaIS9_ENSt8__detail10_Select1stESt8equal_toIS5_ESt4hashIS5_ENSB_18_Mod_range_hashingENSB_20_Default_ranged_hashENSB_20_Prime_rehash_policyENSB_17_Hashtable_traitsILb1ELb0ELb1EEEE15_M_bucket_indexERKNSB_16_Hash_node_valueIS9_Lb1EEE, symObjAddr: 0x6338, symBinAddr: 0x100009D9C, symSize: 0x30 }
  - { offsetInCU: 0x31499, offset: 0x31499, size: 0x8, addend: 0x0, symName: __ZNSt10_HashtableINSt7__cxx1112basic_stringIcSt11char_traitsIcESaIcEEESt4pairIKS5_St3anyESaIS9_ENSt8__detail10_Select1stESt8equal_toIS5_ESt4hashIS5_ENSB_18_Mod_range_hashingENSB_20_Default_ranged_hashENSB_20_Prime_rehash_policyENSB_17_Hashtable_traitsILb1ELb0ELb1EEEE16_M_update_bbeginEPNSB_10_Hash_nodeIS9_Lb1EEE, symObjAddr: 0x6308, symBinAddr: 0x100009D6C, symSize: 0x30 }
  - { offsetInCU: 0x314D4, offset: 0x314D4, size: 0x8, addend: 0x0, symName: __ZNKSt8__detail15_Hash_code_baseINSt7__cxx1112basic_stringIcSt11char_traitsIcESaIcEEESt4pairIKS6_St3anyENS_10_Select1stESt4hashIS6_ENS_18_Mod_range_hashingENS_20_Default_ranged_hashELb1EE12_M_copy_codeERNS_21_Hash_node_code_cacheILb1EEERKSI_, symObjAddr: 0x62DC, symBinAddr: 0x100009D40, symSize: 0x2C }
  - { offsetInCU: 0x3152C, offset: 0x3152C, size: 0x8, addend: 0x0, symName: __ZNKSt8__detail10_AllocNodeISaINS_10_Hash_nodeISt4pairIKNSt7__cxx1112basic_stringIcSt11char_traitsIcESaIcEEESt3anyELb1EEEEEclIJRKSB_EEEPSC_DpOT_, symObjAddr: 0x62A0, symBinAddr: 0x100009D04, symSize: 0x3C }
  - { offsetInCU: 0x3156C, offset: 0x3156C, size: 0x8, addend: 0x0, symName: __ZNSt10_HashtableINSt7__cxx1112basic_stringIcSt11char_traitsIcESaIcEEESt4pairIKS5_St3anyESaIS9_ENSt8__detail10_Select1stESt8equal_toIS5_ESt4hashIS5_ENSB_18_Mod_range_hashingENSB_20_Default_ranged_hashENSB_20_Prime_rehash_policyENSB_17_Hashtable_traitsILb1ELb0ELb1EEEE15__fwd_value_forIRKSM_EENSt13__conditionalIXsrSt19is_lvalue_referenceIT_E5valueEE4typeIRKS9_OS9_EERS9_, symObjAddr: 0x6284, symBinAddr: 0x100009CE8, symSize: 0x1C }
  - { offsetInCU: 0x315A3, offset: 0x315A3, size: 0x8, addend: 0x0, symName: __ZNSt10_HashtableINSt7__cxx1112basic_stringIcSt11char_traitsIcESaIcEEESt4pairIKS5_St3anyESaIS9_ENSt8__detail10_Select1stESt8equal_toIS5_ESt4hashIS5_ENSB_18_Mod_range_hashingENSB_20_Default_ranged_hashENSB_20_Prime_rehash_policyENSB_17_Hashtable_traitsILb1ELb0ELb1EEEE19_M_allocate_bucketsEm, symObjAddr: 0x622C, symBinAddr: 0x100009C90, symSize: 0x58 }
  - { offsetInCU: 0x315DE, offset: 0x315DE, size: 0x8, addend: 0x0, symName: __ZNSt8__detail16_Hashtable_allocISaINS_10_Hash_nodeISt4pairIKNSt7__cxx1112basic_stringIcSt11char_traitsIcESaIcEEESt3anyELb1EEEEE18_M_deallocate_nodeEPSC_, symObjAddr: 0x61B0, symBinAddr: 0x100009C14, symSize: 0x7C }
  - { offsetInCU: 0x31697, offset: 0x31697, size: 0x8, addend: 0x0, symName: __ZNKSt8__detail21_Hashtable_ebo_helperILi0ESaINS_10_Hash_nodeISt4pairIKNSt7__cxx1112basic_stringIcSt11char_traitsIcESaIcEEESt3anyELb1EEEELb1EE7_M_cgetEv, symObjAddr: 0x619C, symBinAddr: 0x100009C00, symSize: 0x14 }
  - { offsetInCU: 0x316C1, offset: 0x316C1, size: 0x8, addend: 0x0, symName: __ZNSt8__detail21_Hashtable_ebo_helperILi0ESaINS_10_Hash_nodeISt4pairIKNSt7__cxx1112basic_stringIcSt11char_traitsIcESaIcEEESt3anyELb1EEEELb1EE6_M_getEv, symObjAddr: 0x6188, symBinAddr: 0x100009BEC, symSize: 0x14 }
  - { offsetInCU: 0x316EB, offset: 0x316EB, size: 0x8, addend: 0x0, symName: __ZNSt8_Rb_treeINSt7__cxx1112basic_stringIcSt11char_traitsIcESaIcEEESt4pairIKS5_6RecordESt10_Select1stIS9_ESt4lessIS5_ESaIS9_EE10_Auto_node9_M_insertES6_IPSt18_Rb_tree_node_baseSI_E, symObjAddr: 0x613C, symBinAddr: 0x100009BA0, symSize: 0x4C }
  - { offsetInCU: 0x31737, offset: 0x31737, size: 0x8, addend: 0x0, symName: __ZNKSt8_Rb_treeINSt7__cxx1112basic_stringIcSt11char_traitsIcESaIcEEESt4pairIKS5_6RecordESt10_Select1stIS9_ESt4lessIS5_ESaIS9_EE10_Auto_node6_M_keyEv, symObjAddr: 0x611C, symBinAddr: 0x100009B80, symSize: 0x20 }
  - { offsetInCU: 0x31761, offset: 0x31761, size: 0x8, addend: 0x0, symName: __ZNSt8_Rb_treeINSt7__cxx1112basic_stringIcSt11char_traitsIcESaIcEEESt4pairIKS5_6RecordESt10_Select1stIS9_ESt4lessIS5_ESaIS9_EE29_M_get_insert_hint_unique_posESt23_Rb_tree_const_iteratorIS9_ERS7_, symObjAddr: 0x5DF8, symBinAddr: 0x10000985C, symSize: 0x324 }
  - { offsetInCU: 0x318BB, offset: 0x318BB, size: 0x8, addend: 0x0, symName: __ZNSt8_Rb_treeINSt7__cxx1112basic_stringIcSt11char_traitsIcESaIcEEESt4pairIKS5_6RecordESt10_Select1stIS9_ESt4lessIS5_ESaIS9_EE10_Auto_nodeD1Ev, symObjAddr: 0x5DB4, symBinAddr: 0x100009818, symSize: 0x44 }
  - { offsetInCU: 0x31972, offset: 0x31972, size: 0x8, addend: 0x0, symName: __ZNSt8_Rb_treeINSt7__cxx1112basic_stringIcSt11char_traitsIcESaIcEEESt4pairIKS5_6RecordESt10_Select1stIS9_ESt4lessIS5_ESaIS9_EE10_Auto_nodeC1IJRKSt21piecewise_construct_tSt5tupleIJRS7_EESL_IJEEEEERSF_DpOT_, symObjAddr: 0x5D38, symBinAddr: 0x10000979C, symSize: 0x7C }
  - { offsetInCU: 0x31912, offset: 0x31912, size: 0x8, addend: 0x0, symName: __ZSt7forwardISt5tupleIJEEEOT_RNSt16remove_referenceIS2_E4typeE, symObjAddr: 0x5D24, symBinAddr: 0x100009788, symSize: 0x14 }
  - { offsetInCU: 0x3194B, offset: 0x3194B, size: 0x8, addend: 0x0, symName: __ZSt7forwardISt5tupleIJRKNSt7__cxx1112basic_stringIcSt11char_traitsIcESaIcEEEEEEOT_RNSt16remove_referenceISA_E4typeE, symObjAddr: 0x5D10, symBinAddr: 0x100009774, symSize: 0x14 }
  - { offsetInCU: 0x31984, offset: 0x31984, size: 0x8, addend: 0x0, symName: __ZSt7forwardIRKSt21piecewise_construct_tEOT_RNSt16remove_referenceIS3_E4typeE, symObjAddr: 0x5CFC, symBinAddr: 0x100009760, symSize: 0x14 }
  - { offsetInCU: 0x31A35, offset: 0x31A35, size: 0x8, addend: 0x0, symName: __ZNSt11_Tuple_implILm0EJRKNSt7__cxx1112basic_stringIcSt11char_traitsIcESaIcEEEEEC2ES7_, symObjAddr: 0x5CD4, symBinAddr: 0x100009738, symSize: 0x28 }
  - { offsetInCU: 0x31A0D, offset: 0x31A0D, size: 0x8, addend: 0x0, symName: __ZStltIcSt11char_traitsIcESaIcEEbRKNSt7__cxx1112basic_stringIT_T0_T1_EESA_, symObjAddr: 0x5CA8, symBinAddr: 0x10000970C, symSize: 0x2C }
  - { offsetInCU: 0x31A67, offset: 0x31A67, size: 0x8, addend: 0x0, symName: __ZNKSt8_Rb_treeINSt7__cxx1112basic_stringIcSt11char_traitsIcESaIcEEESt4pairIKS5_6RecordESt10_Select1stIS9_ESt4lessIS5_ESaIS9_EE8key_compEv, symObjAddr: 0x5C90, symBinAddr: 0x1000096F4, symSize: 0x18 }
  - { offsetInCU: 0x31A91, offset: 0x31A91, size: 0x8, addend: 0x0, symName: __ZNSt8_Rb_treeINSt7__cxx1112basic_stringIcSt11char_traitsIcESaIcEEESt4pairIKS5_6RecordESt10_Select1stIS9_ESt4lessIS5_ESaIS9_EE11lower_boundERS7_, symObjAddr: 0x5C48, symBinAddr: 0x1000096AC, symSize: 0x48 }
  - { offsetInCU: 0x31B6A, offset: 0x31B6A, size: 0x8, addend: 0x0, symName: __ZNSt17_Rb_tree_iteratorISt4pairIKNSt7__cxx1112basic_stringIcSt11char_traitsIcESaIcEEE6RecordEEC1EPSt18_Rb_tree_node_base, symObjAddr: 0x5C24, symBinAddr: 0x100009688, symSize: 0x24 }
  - { offsetInCU: 0x31B1F, offset: 0x31B1F, size: 0x8, addend: 0x0, symName: __ZNSt8_Rb_treeINSt7__cxx1112basic_stringIcSt11char_traitsIcESaIcEEESt4pairIKS5_6RecordESt10_Select1stIS9_ESt4lessIS5_ESaIS9_EE6_S_keyEPKSt18_Rb_tree_node_base, symObjAddr: 0x5C08, symBinAddr: 0x10000966C, symSize: 0x1C }
  - { offsetInCU: 0x31B4D, offset: 0x31B4D, size: 0x8, addend: 0x0, symName: __ZNSt8_Rb_treeINSt7__cxx1112basic_stringIcSt11char_traitsIcESaIcEEESt4pairIKS5_6RecordESt10_Select1stIS9_ESt4lessIS5_ESaIS9_EE14_M_lower_boundEPSt13_Rb_tree_nodeIS9_EPSt18_Rb_tree_node_baseRS7_, symObjAddr: 0x5B6C, symBinAddr: 0x1000095D0, symSize: 0x9C }
  - { offsetInCU: 0x31BAA, offset: 0x31BAA, size: 0x8, addend: 0x0, symName: __ZNSt8_Rb_treeINSt7__cxx1112basic_stringIcSt11char_traitsIcESaIcEEESt4pairIKS5_6RecordESt10_Select1stIS9_ESt4lessIS5_ESaIS9_EE6_M_endEv, symObjAddr: 0x5B54, symBinAddr: 0x1000095B8, symSize: 0x18 }
  - { offsetInCU: 0x31BD4, offset: 0x31BD4, size: 0x8, addend: 0x0, symName: __ZNKSt8_Rb_treeINSt7__cxx1112basic_stringIcSt11char_traitsIcESaIcEEESt4pairIKS5_6RecordESt10_Select1stIS9_ESt4lessIS5_ESaIS9_EE9_M_mbeginEv, symObjAddr: 0x5B3C, symBinAddr: 0x1000095A0, symSize: 0x18 }
  - { offsetInCU: 0x31BFE, offset: 0x31BFE, size: 0x8, addend: 0x0, symName: __ZNSt8_Rb_treeINSt7__cxx1112basic_stringIcSt11char_traitsIcESaIcEEESt4pairIKS5_6RecordESt10_Select1stIS9_ESt4lessIS5_ESaIS9_EE12_M_drop_nodeEPSt13_Rb_tree_nodeIS9_E, symObjAddr: 0x5B08, symBinAddr: 0x10000956C, symSize: 0x34 }
  - { offsetInCU: 0x31C35, offset: 0x31C35, size: 0x8, addend: 0x0, symName: __ZNSt8_Rb_treeINSt7__cxx1112basic_stringIcSt11char_traitsIcESaIcEEESt4pairIKS5_6RecordESt10_Select1stIS9_ESt4lessIS5_ESaIS9_EE7_S_leftEPSt18_Rb_tree_node_base, symObjAddr: 0x5AF0, symBinAddr: 0x100009554, symSize: 0x18 }
  - { offsetInCU: 0x31C5F, offset: 0x31C5F, size: 0x8, addend: 0x0, symName: __ZNSt8_Rb_treeINSt7__cxx1112basic_stringIcSt11char_traitsIcESaIcEEESt4pairIKS5_6RecordESt10_Select1stIS9_ESt4lessIS5_ESaIS9_EE8_S_rightEPSt18_Rb_tree_node_base, symObjAddr: 0x5AD8, symBinAddr: 0x10000953C, symSize: 0x18 }
  - { offsetInCU: 0x31CB9, offset: 0x31CB9, size: 0x8, addend: 0x0, symName: __ZNKSt8__detail10_Hash_nodeISt4pairIKNSt7__cxx1112basic_stringIcSt11char_traitsIcESaIcEEESt3anyELb1EE7_M_nextEv, symObjAddr: 0x5AC0, symBinAddr: 0x100009524, symSize: 0x18 }
  - { offsetInCU: 0x31D97, offset: 0x31D97, size: 0x8, addend: 0x0, symName: __ZNSt8__detail20_Node_const_iteratorISt4pairIKNSt7__cxx1112basic_stringIcSt11char_traitsIcESaIcEEESt3anyELb0ELb1EEC1EPNS_10_Hash_nodeISA_Lb1EEE, symObjAddr: 0x5A98, symBinAddr: 0x1000094FC, symSize: 0x28 }
  - { offsetInCU: 0x31D3A, offset: 0x31D3A, size: 0x8, addend: 0x0, symName: __ZNKSt8__detail20_Node_const_iteratorISt4pairIKNSt7__cxx1112basic_stringIcSt11char_traitsIcESaIcEEESt3anyELb0ELb1EEptEv, symObjAddr: 0x5A68, symBinAddr: 0x1000094CC, symSize: 0x30 }
  - { offsetInCU: 0x31D88, offset: 0x31D88, size: 0x8, addend: 0x0, symName: __ZNKSt10_HashtableINSt7__cxx1112basic_stringIcSt11char_traitsIcESaIcEEESt4pairIKS5_St3anyESaIS9_ENSt8__detail10_Select1stESt8equal_toIS5_ESt4hashIS5_ENSB_18_Mod_range_hashingENSB_20_Default_ranged_hashENSB_20_Prime_rehash_policyENSB_17_Hashtable_traitsILb1ELb0ELb1EEEE4findERS7_, symObjAddr: 0x5970, symBinAddr: 0x1000093D4, symSize: 0xF8 }
  - { offsetInCU: 0x31E09, offset: 0x31E09, size: 0x8, addend: 0x0, symName: __ZNKSt8__detail14_Node_iteratorISt4pairIKNSt7__cxx1112basic_stringIcSt11char_traitsIcESaIcEEESt3anyELb0ELb1EEptEv, symObjAddr: 0x5940, symBinAddr: 0x1000093A4, symSize: 0x30 }
  - { offsetInCU: 0x31E57, offset: 0x31E57, size: 0x8, addend: 0x0, symName: __ZNSt10_HashtableINSt7__cxx1112basic_stringIcSt11char_traitsIcESaIcEEESt4pairIKS5_St3anyESaIS9_ENSt8__detail10_Select1stESt8equal_toIS5_ESt4hashIS5_ENSB_18_Mod_range_hashingENSB_20_Default_ranged_hashENSB_20_Prime_rehash_policyENSB_17_Hashtable_traitsILb1ELb0ELb1EEEE21_M_insert_unique_nodeEmmPNSB_10_Hash_nodeIS9_Lb1EEEm, symObjAddr: 0x5830, symBinAddr: 0x100009294, symSize: 0x110 }
  - { offsetInCU: 0x32028, offset: 0x32028, size: 0x8, addend: 0x0, symName: __ZNSt10_HashtableINSt7__cxx1112basic_stringIcSt11char_traitsIcESaIcEEESt4pairIKS5_St3anyESaIS9_ENSt8__detail10_Select1stESt8equal_toIS5_ESt4hashIS5_ENSB_18_Mod_range_hashingENSB_20_Default_ranged_hashENSB_20_Prime_rehash_policyENSB_17_Hashtable_traitsILb1ELb0ELb1EEEE12_Scoped_nodeD1Ev, symObjAddr: 0x57EC, symBinAddr: 0x100009250, symSize: 0x44 }
  - { offsetInCU: 0x32113, offset: 0x32113, size: 0x8, addend: 0x0, symName: __ZNSt10_HashtableINSt7__cxx1112basic_stringIcSt11char_traitsIcESaIcEEESt4pairIKS5_St3anyESaIS9_ENSt8__detail10_Select1stESt8equal_toIS5_ESt4hashIS5_ENSB_18_Mod_range_hashingENSB_20_Default_ranged_hashENSB_20_Prime_rehash_policyENSB_17_Hashtable_traitsILb1ELb0ELb1EEEE12_Scoped_nodeC1IJRKSt21piecewise_construct_tSt5tupleIJRS7_EESS_IJEEEEEPNSB_16_Hashtable_allocISaINSB_10_Hash_nodeIS9_Lb1EEEEEEDpOT_, symObjAddr: 0x5764, symBinAddr: 0x1000091C8, symSize: 0x88 }
  - { offsetInCU: 0x31FED, offset: 0x31FED, size: 0x8, addend: 0x0, symName: __ZNKSt10_HashtableINSt7__cxx1112basic_stringIcSt11char_traitsIcESaIcEEESt4pairIKS5_St3anyESaIS9_ENSt8__detail10_Select1stESt8equal_toIS5_ESt4hashIS5_ENSB_18_Mod_range_hashingENSB_20_Default_ranged_hashENSB_20_Prime_rehash_policyENSB_17_Hashtable_traitsILb1ELb0ELb1EEEE12_M_find_nodeEmRS7_m, symObjAddr: 0x5710, symBinAddr: 0x100009174, symSize: 0x54 }
  - { offsetInCU: 0x3205B, offset: 0x3205B, size: 0x8, addend: 0x0, symName: __ZNKSt10_HashtableINSt7__cxx1112basic_stringIcSt11char_traitsIcESaIcEEESt4pairIKS5_St3anyESaIS9_ENSt8__detail10_Select1stESt8equal_toIS5_ESt4hashIS5_ENSB_18_Mod_range_hashingENSB_20_Default_ranged_hashENSB_20_Prime_rehash_policyENSB_17_Hashtable_traitsILb1ELb0ELb1EEEE15_M_bucket_indexEm, symObjAddr: 0x56E0, symBinAddr: 0x100009144, symSize: 0x30 }
  - { offsetInCU: 0x32096, offset: 0x32096, size: 0x8, addend: 0x0, symName: __ZNKSt8__detail15_Hash_code_baseINSt7__cxx1112basic_stringIcSt11char_traitsIcESaIcEEESt4pairIKS6_St3anyENS_10_Select1stESt4hashIS6_ENS_18_Mod_range_hashingENS_20_Default_ranged_hashELb1EE12_M_hash_codeERS8_, symObjAddr: 0x56B8, symBinAddr: 0x10000911C, symSize: 0x28 }
  - { offsetInCU: 0x320D1, offset: 0x320D1, size: 0x8, addend: 0x0, symName: __ZNKSt10_HashtableINSt7__cxx1112basic_stringIcSt11char_traitsIcESaIcEEESt4pairIKS5_8DataTypeESaIS9_ENSt8__detail10_Select1stESt8equal_toIS5_ESt4hashIS5_ENSB_18_Mod_range_hashingENSB_20_Default_ranged_hashENSB_20_Prime_rehash_policyENSB_17_Hashtable_traitsILb1ELb0ELb1EEEE15_M_bucket_indexERKNSB_16_Hash_node_valueIS9_Lb1EEE, symObjAddr: 0x5688, symBinAddr: 0x1000090EC, symSize: 0x30 }
  - { offsetInCU: 0x3210C, offset: 0x3210C, size: 0x8, addend: 0x0, symName: __ZNSt10_HashtableINSt7__cxx1112basic_stringIcSt11char_traitsIcESaIcEEESt4pairIKS5_8DataTypeESaIS9_ENSt8__detail10_Select1stESt8equal_toIS5_ESt4hashIS5_ENSB_18_Mod_range_hashingENSB_20_Default_ranged_hashENSB_20_Prime_rehash_policyENSB_17_Hashtable_traitsILb1ELb0ELb1EEEE16_M_update_bbeginEPNSB_10_Hash_nodeIS9_Lb1EEE, symObjAddr: 0x5658, symBinAddr: 0x1000090BC, symSize: 0x30 }
  - { offsetInCU: 0x32147, offset: 0x32147, size: 0x8, addend: 0x0, symName: __ZNKSt8__detail15_Hash_code_baseINSt7__cxx1112basic_stringIcSt11char_traitsIcESaIcEEESt4pairIKS6_8DataTypeENS_10_Select1stESt4hashIS6_ENS_18_Mod_range_hashingENS_20_Default_ranged_hashELb1EE12_M_copy_codeERNS_21_Hash_node_code_cacheILb1EEERKSI_, symObjAddr: 0x562C, symBinAddr: 0x100009090, symSize: 0x2C }
  - { offsetInCU: 0x3219F, offset: 0x3219F, size: 0x8, addend: 0x0, symName: __ZNKSt8__detail10_AllocNodeISaINS_10_Hash_nodeISt4pairIKNSt7__cxx1112basic_stringIcSt11char_traitsIcESaIcEEE8DataTypeELb1EEEEEclIJRKSB_EEEPSC_DpOT_, symObjAddr: 0x55F0, symBinAddr: 0x100009054, symSize: 0x3C }
  - { offsetInCU: 0x321DF, offset: 0x321DF, size: 0x8, addend: 0x0, symName: __ZNSt10_HashtableINSt7__cxx1112basic_stringIcSt11char_traitsIcESaIcEEESt4pairIKS5_8DataTypeESaIS9_ENSt8__detail10_Select1stESt8equal_toIS5_ESt4hashIS5_ENSB_18_Mod_range_hashingENSB_20_Default_ranged_hashENSB_20_Prime_rehash_policyENSB_17_Hashtable_traitsILb1ELb0ELb1EEEE15__fwd_value_forIRKSM_EENSt13__conditionalIXsrSt19is_lvalue_referenceIT_E5valueEE4typeIRKS9_OS9_EERS9_, symObjAddr: 0x55D4, symBinAddr: 0x100009038, symSize: 0x1C }
  - { offsetInCU: 0x32216, offset: 0x32216, size: 0x8, addend: 0x0, symName: __ZNSt10_HashtableINSt7__cxx1112basic_stringIcSt11char_traitsIcESaIcEEESt4pairIKS5_8DataTypeESaIS9_ENSt8__detail10_Select1stESt8equal_toIS5_ESt4hashIS5_ENSB_18_Mod_range_hashingENSB_20_Default_ranged_hashENSB_20_Prime_rehash_policyENSB_17_Hashtable_traitsILb1ELb0ELb1EEEE19_M_allocate_bucketsEm, symObjAddr: 0x557C, symBinAddr: 0x100008FE0, symSize: 0x58 }
  - { offsetInCU: 0x32321, offset: 0x32321, size: 0x8, addend: 0x0, symName: __ZNSt8__detail21_Hashtable_ebo_helperILi0ESaINS_10_Hash_nodeISt4pairIKNSt7__cxx1112basic_stringIcSt11char_traitsIcESaIcEEE8DataTypeELb1EEEELb1EEC2ISD_EEOT_, symObjAddr: 0x5530, symBinAddr: 0x100008F94, symSize: 0x4C }
  - { offsetInCU: 0x3231D, offset: 0x3231D, size: 0x8, addend: 0x0, symName: __ZSt7forwardISaINSt8__detail10_Hash_nodeISt4pairIKNSt7__cxx1112basic_stringIcSt11char_traitsIcESaIcEEE8DataTypeELb1EEEEEOT_RNSt16remove_referenceISE_E4typeE, symObjAddr: 0x551C, symBinAddr: 0x100008F80, symSize: 0x14 }
  - { offsetInCU: 0x32369, offset: 0x32369, size: 0x8, addend: 0x0, symName: __ZNKSt8__detail21_Hashtable_ebo_helperILi0ESaINS_10_Hash_nodeISt4pairIKNSt7__cxx1112basic_stringIcSt11char_traitsIcESaIcEEE8DataTypeELb1EEEELb1EE7_M_cgetEv, symObjAddr: 0x5508, symBinAddr: 0x100008F6C, symSize: 0x14 }
  - { offsetInCU: 0x32393, offset: 0x32393, size: 0x8, addend: 0x0, symName: __ZNSt10_HashtableINSt7__cxx1112basic_stringIcSt11char_traitsIcESaIcEEESt4pairIKS5_8DataTypeESaIS9_ENSt8__detail10_Select1stESt8equal_toIS5_ESt4hashIS5_ENSB_18_Mod_range_hashingENSB_20_Default_ranged_hashENSB_20_Prime_rehash_policyENSB_17_Hashtable_traitsILb1ELb0ELb1EEEE21_M_deallocate_bucketsEPPNSB_15_Hash_node_baseEm, symObjAddr: 0x54BC, symBinAddr: 0x100008F20, symSize: 0x4C }
  - { offsetInCU: 0x323F5, offset: 0x323F5, size: 0x8, addend: 0x0, symName: __ZNSt10_HashtableINSt7__cxx1112basic_stringIcSt11char_traitsIcESaIcEEESt4pairIKS5_St3anyESaIS9_ENSt8__detail10_Select1stESt8equal_toIS5_ESt4hashIS5_ENSB_18_Mod_range_hashingENSB_20_Default_ranged_hashENSB_20_Prime_rehash_policyENSB_17_Hashtable_traitsILb1ELb0ELb1EEEE21_M_deallocate_bucketsEPPNSB_15_Hash_node_baseEm, symObjAddr: 0x5470, symBinAddr: 0x100008ED4, symSize: 0x4C }
  - { offsetInCU: 0x32457, offset: 0x32457, size: 0x8, addend: 0x0, symName: __ZNKSt8__detail20_Node_const_iteratorISt4pairIKNSt7__cxx1112basic_stringIcSt11char_traitsIcESaIcEEE8DataTypeELb0ELb1EEptEv, symObjAddr: 0x5440, symBinAddr: 0x100008EA4, symSize: 0x30 }
  - { offsetInCU: 0x3255C, offset: 0x3255C, size: 0x8, addend: 0x0, symName: __ZNSt8__detail20_Node_const_iteratorISt4pairIKNSt7__cxx1112basic_stringIcSt11char_traitsIcESaIcEEE8DataTypeELb0ELb1EEC1EPNS_10_Hash_nodeISA_Lb1EEE, symObjAddr: 0x5418, symBinAddr: 0x100008E7C, symSize: 0x28 }
  - { offsetInCU: 0x324FC, offset: 0x324FC, size: 0x8, addend: 0x0, symName: __ZNKSt8__detail15_Hashtable_baseINSt7__cxx1112basic_stringIcSt11char_traitsIcESaIcEEESt4pairIKS6_8DataTypeENS_10_Select1stESt8equal_toIS6_ESt4hashIS6_ENS_18_Mod_range_hashingENS_20_Default_ranged_hashENS_17_Hashtable_traitsILb1ELb0ELb1EEEE13_M_key_equalsERS8_RKNS_16_Hash_node_valueISA_Lb1EEE, symObjAddr: 0x53AC, symBinAddr: 0x100008E10, symSize: 0x6C }
  - { offsetInCU: 0x32590, offset: 0x32590, size: 0x8, addend: 0x0, symName: __ZNKSt8__detail10_Hash_nodeISt4pairIKNSt7__cxx1112basic_stringIcSt11char_traitsIcESaIcEEE8DataTypeELb1EE7_M_nextEv, symObjAddr: 0x5394, symBinAddr: 0x100008DF8, symSize: 0x18 }
  - { offsetInCU: 0x325B7, offset: 0x325B7, size: 0x8, addend: 0x0, symName: __ZNSt10_HashtableINSt7__cxx1112basic_stringIcSt11char_traitsIcESaIcEEESt4pairIKS5_8DataTypeESaIS9_ENSt8__detail10_Select1stESt8equal_toIS5_ESt4hashIS5_ENSB_18_Mod_range_hashingENSB_20_Default_ranged_hashENSB_20_Prime_rehash_policyENSB_17_Hashtable_traitsILb1ELb0ELb1EEEE22__small_size_thresholdEv, symObjAddr: 0x5380, symBinAddr: 0x100008DE4, symSize: 0x14 }
  - { offsetInCU: 0x325D2, offset: 0x325D2, size: 0x8, addend: 0x0, symName: __ZNKSt10_HashtableINSt7__cxx1112basic_stringIcSt11char_traitsIcESaIcEEESt4pairIKS5_8DataTypeESaIS9_ENSt8__detail10_Select1stESt8equal_toIS5_ESt4hashIS5_ENSB_18_Mod_range_hashingENSB_20_Default_ranged_hashENSB_20_Prime_rehash_policyENSB_17_Hashtable_traitsILb1ELb0ELb1EEEE4sizeEv, symObjAddr: 0x5368, symBinAddr: 0x100008DCC, symSize: 0x18 }
  - { offsetInCU: 0x325FC, offset: 0x325FC, size: 0x8, addend: 0x0, symName: __ZNKSt8__detail14_Node_iteratorISt4pairIKNSt7__cxx1112basic_stringIcSt11char_traitsIcESaIcEEE8DataTypeELb0ELb1EEptEv, symObjAddr: 0x5338, symBinAddr: 0x100008D9C, symSize: 0x30 }
  - { offsetInCU: 0x3264A, offset: 0x3264A, size: 0x8, addend: 0x0, symName: __ZNSt10_HashtableINSt7__cxx1112basic_stringIcSt11char_traitsIcESaIcEEESt4pairIKS5_8DataTypeESaIS9_ENSt8__detail10_Select1stESt8equal_toIS5_ESt4hashIS5_ENSB_18_Mod_range_hashingENSB_20_Default_ranged_hashENSB_20_Prime_rehash_policyENSB_17_Hashtable_traitsILb1ELb0ELb1EEEE21_M_insert_unique_nodeEmmPNSB_10_Hash_nodeIS9_Lb1EEEm, symObjAddr: 0x5228, symBinAddr: 0x100008C8C, symSize: 0x110 }
  - { offsetInCU: 0x3281E, offset: 0x3281E, size: 0x8, addend: 0x0, symName: __ZNSt10_HashtableINSt7__cxx1112basic_stringIcSt11char_traitsIcESaIcEEESt4pairIKS5_8DataTypeESaIS9_ENSt8__detail10_Select1stESt8equal_toIS5_ESt4hashIS5_ENSB_18_Mod_range_hashingENSB_20_Default_ranged_hashENSB_20_Prime_rehash_policyENSB_17_Hashtable_traitsILb1ELb0ELb1EEEE12_Scoped_nodeD1Ev, symObjAddr: 0x51E4, symBinAddr: 0x100008C48, symSize: 0x44 }
  - { offsetInCU: 0x32909, offset: 0x32909, size: 0x8, addend: 0x0, symName: __ZNSt10_HashtableINSt7__cxx1112basic_stringIcSt11char_traitsIcESaIcEEESt4pairIKS5_8DataTypeESaIS9_ENSt8__detail10_Select1stESt8equal_toIS5_ESt4hashIS5_ENSB_18_Mod_range_hashingENSB_20_Default_ranged_hashENSB_20_Prime_rehash_policyENSB_17_Hashtable_traitsILb1ELb0ELb1EEEE12_Scoped_nodeC1IJRKSt21piecewise_construct_tSt5tupleIJRS7_EESS_IJEEEEEPNSB_16_Hashtable_allocISaINSB_10_Hash_nodeIS9_Lb1EEEEEEDpOT_, symObjAddr: 0x515C, symBinAddr: 0x100008BC0, symSize: 0x88 }
  - { offsetInCU: 0x327F6, offset: 0x327F6, size: 0x8, addend: 0x0, symName: __ZNKSt10_HashtableINSt7__cxx1112basic_stringIcSt11char_traitsIcESaIcEEESt4pairIKS5_8DataTypeESaIS9_ENSt8__detail10_Select1stESt8equal_toIS5_ESt4hashIS5_ENSB_18_Mod_range_hashingENSB_20_Default_ranged_hashENSB_20_Prime_rehash_policyENSB_17_Hashtable_traitsILb1ELb0ELb1EEEE12_M_find_nodeEmRS7_m, symObjAddr: 0x5108, symBinAddr: 0x100008B6C, symSize: 0x54 }
  - { offsetInCU: 0x32864, offset: 0x32864, size: 0x8, addend: 0x0, symName: __ZNKSt10_HashtableINSt7__cxx1112basic_stringIcSt11char_traitsIcESaIcEEESt4pairIKS5_8DataTypeESaIS9_ENSt8__detail10_Select1stESt8equal_toIS5_ESt4hashIS5_ENSB_18_Mod_range_hashingENSB_20_Default_ranged_hashENSB_20_Prime_rehash_policyENSB_17_Hashtable_traitsILb1ELb0ELb1EEEE15_M_bucket_indexEm, symObjAddr: 0x50D8, symBinAddr: 0x100008B3C, symSize: 0x30 }
  - { offsetInCU: 0x3289F, offset: 0x3289F, size: 0x8, addend: 0x0, symName: __ZNKSt8__detail15_Hash_code_baseINSt7__cxx1112basic_stringIcSt11char_traitsIcESaIcEEESt4pairIKS6_8DataTypeENS_10_Select1stESt4hashIS6_ENS_18_Mod_range_hashingENS_20_Default_ranged_hashELb1EE12_M_hash_codeERS8_, symObjAddr: 0x50B0, symBinAddr: 0x100008B14, symSize: 0x28 }
  - { offsetInCU: 0x328DB, offset: 0x328DB, size: 0x8, addend: 0x0, symName: __ZSt12__any_casterINSt7__cxx1112basic_stringIcSt11char_traitsIcESaIcEEEEPvPKSt3any, symObjAddr: 0x5038, symBinAddr: 0x100008A9C, symSize: 0x78 }
  - { offsetInCU: 0x32938, offset: 0x32938, size: 0x8, addend: 0x0, symName: __ZSt11__addressofI6RecordEPT_RS1_, symObjAddr: 0x5024, symBinAddr: 0x100008A88, symSize: 0x14 }
  - { offsetInCU: 0x3296E, offset: 0x3296E, size: 0x8, addend: 0x0, symName: __ZNSt19_Optional_base_implI6RecordSt14_Optional_baseIS0_Lb0ELb0EEE6_M_getEv, symObjAddr: 0x4FD0, symBinAddr: 0x100008A34, symSize: 0x54 }
  - { offsetInCU: 0x329B2, offset: 0x329B2, size: 0x8, addend: 0x0, symName: __ZNKSt19_Optional_base_implI6RecordSt14_Optional_baseIS0_Lb0ELb0EEE13_M_is_engagedEv, symObjAddr: 0x4FB8, symBinAddr: 0x100008A1C, symSize: 0x18 }
  - { offsetInCU: 0x329D8, offset: 0x329D8, size: 0x8, addend: 0x0, symName: __ZNSt3any17_Manager_internalIiE9_S_createIiEEvRNS_8_StorageEOT_, symObjAddr: 0x4F68, symBinAddr: 0x1000089CC, symSize: 0x50 }
  - { offsetInCU: 0x32A2D, offset: 0x32A2D, size: 0x8, addend: 0x0, symName: __ZNSt3any17_Manager_internalIiE9_S_manageENS_3_OpEPKS_PNS_4_ArgE, symObjAddr: 0x4E38, symBinAddr: 0x10000889C, symSize: 0x130 }
  - { offsetInCU: 0x32A8A, offset: 0x32A8A, size: 0x8, addend: 0x0, symName: __ZNSt3any17_Manager_externalINSt7__cxx1112basic_stringIcSt11char_traitsIcESaIcEEEE9_S_createIS6_EEvRNS_8_StorageEOT_, symObjAddr: 0x4DEC, symBinAddr: 0x100008850, symSize: 0x4C }
  - { offsetInCU: 0x32AD5, offset: 0x32AD5, size: 0x8, addend: 0x0, symName: __ZSt7forwardINSt7__cxx1112basic_stringIcSt11char_traitsIcESaIcEEEEOT_RNSt16remove_referenceIS6_E4typeE, symObjAddr: 0x4DD8, symBinAddr: 0x10000883C, symSize: 0x14 }
  - { offsetInCU: 0x32B07, offset: 0x32B07, size: 0x8, addend: 0x0, symName: __ZNSt3any17_Manager_externalINSt7__cxx1112basic_stringIcSt11char_traitsIcESaIcEEEE9_S_manageENS_3_OpEPKS_PNS_4_ArgE, symObjAddr: 0x4C6C, symBinAddr: 0x1000086D0, symSize: 0x16C }
  - { offsetInCU: 0x32B68, offset: 0x32B68, size: 0x8, addend: 0x0, symName: __ZNSt8_Rb_treeINSt7__cxx1112basic_stringIcSt11char_traitsIcESaIcEEESt4pairIKS5_6RecordESt10_Select1stIS9_ESt4lessIS5_ESaIS9_EE14_M_move_assignERSF_St17integral_constantIbLb1EE, symObjAddr: 0x4BE0, symBinAddr: 0x100008644, symSize: 0x8C }
  - { offsetInCU: 0x32BDC, offset: 0x32BDC, size: 0x8, addend: 0x0, symName: __ZSt4moveIRSt4lessINSt7__cxx1112basic_stringIcSt11char_traitsIcESaIcEEEEEONSt16remove_referenceIT_E4typeEOSA_, symObjAddr: 0x4BCC, symBinAddr: 0x100008630, symSize: 0x14 }
  - { offsetInCU: 0x32C12, offset: 0x32C12, size: 0x8, addend: 0x0, symName: __ZNSt10_HashtableINSt7__cxx1112basic_stringIcSt11char_traitsIcESaIcEEESt4pairIKS5_8DataTypeESaIS9_ENSt8__detail10_Select1stESt8equal_toIS5_ESt4hashIS5_ENSB_18_Mod_range_hashingENSB_20_Default_ranged_hashENSB_20_Prime_rehash_policyENSB_17_Hashtable_traitsILb1ELb0ELb1EEEE14_M_move_assignEOSM_St17integral_constantIbLb1EE, symObjAddr: 0x4A7C, symBinAddr: 0x1000084E0, symSize: 0x150 }
  - { offsetInCU: 0x32C7F, offset: 0x32C7F, size: 0x8, addend: 0x0, symName: __ZSt11__addressofISt10_HashtableINSt7__cxx1112basic_stringIcSt11char_traitsIcESaIcEEESt4pairIKS6_8DataTypeESaISA_ENSt8__detail10_Select1stESt8equal_toIS6_ESt4hashIS6_ENSC_18_Mod_range_hashingENSC_20_Default_ranged_hashENSC_20_Prime_rehash_policyENSC_17_Hashtable_traitsILb1ELb0ELb1EEEEEPT_RSO_, symObjAddr: 0x4A68, symBinAddr: 0x1000084CC, symSize: 0x14 }
  - { offsetInCU: 0x32CB8, offset: 0x32CB8, size: 0x8, addend: 0x0, symName: __ZSt4moveIRSt10_HashtableINSt7__cxx1112basic_stringIcSt11char_traitsIcESaIcEEESt4pairIKS6_8DataTypeESaISA_ENSt8__detail10_Select1stESt8equal_toIS6_ESt4hashIS6_ENSC_18_Mod_range_hashingENSC_20_Default_ranged_hashENSC_20_Prime_rehash_policyENSC_17_Hashtable_traitsILb1ELb0ELb1EEEEEONSt16remove_referenceIT_E4typeEOSQ_, symObjAddr: 0x4A54, symBinAddr: 0x1000084B8, symSize: 0x14 }
  - { offsetInCU: 0x32CEE, offset: 0x32CEE, size: 0x8, addend: 0x0, symName: __ZNSt8__detail9_Map_baseINSt7__cxx1112basic_stringIcSt11char_traitsIcESaIcEEESt4pairIKS6_5TableESaISA_ENS_10_Select1stESt8equal_toIS6_ESt4hashIS6_ENS_18_Mod_range_hashingENS_20_Default_ranged_hashENS_20_Prime_rehash_policyENS_17_Hashtable_traitsILb1ELb0ELb1EEELb1EEixERS8_, symObjAddr: 0x4934, symBinAddr: 0x100008398, symSize: 0x120 }
  - { offsetInCU: 0x32DF5, offset: 0x32DF5, size: 0x8, addend: 0x0, symName: __ZNSt10_HashtableINSt7__cxx1112basic_stringIcSt11char_traitsIcESaIcEEESt4pairIKS5_5TableESaIS9_ENSt8__detail10_Select1stESt8equal_toIS5_ESt4hashIS5_ENSB_18_Mod_range_hashingENSB_20_Default_ranged_hashENSB_20_Prime_rehash_policyENSB_17_Hashtable_traitsILb1ELb0ELb1EEEE3endEv, symObjAddr: 0x4910, symBinAddr: 0x100008374, symSize: 0x24 }
  - { offsetInCU: 0x32E1F, offset: 0x32E1F, size: 0x8, addend: 0x0, symName: __ZNSt10_HashtableINSt7__cxx1112basic_stringIcSt11char_traitsIcESaIcEEESt4pairIKS5_5TableESaIS9_ENSt8__detail10_Select1stESt8equal_toIS5_ESt4hashIS5_ENSB_18_Mod_range_hashingENSB_20_Default_ranged_hashENSB_20_Prime_rehash_policyENSB_17_Hashtable_traitsILb1ELb0ELb1EEEE4findERS7_, symObjAddr: 0x4818, symBinAddr: 0x10000827C, symSize: 0xF8 }
  - { offsetInCU: 0x32EA0, offset: 0x32EA0, size: 0x8, addend: 0x0, symName: __ZNSt10_HashtableINSt7__cxx1112basic_stringIcSt11char_traitsIcESaIcEEESt4pairIKS5_5TableESaIS9_ENSt8__detail10_Select1stESt8equal_toIS5_ESt4hashIS5_ENSB_18_Mod_range_hashingENSB_20_Default_ranged_hashENSB_20_Prime_rehash_policyENSB_17_Hashtable_traitsILb1ELb0ELb1EEEE21_M_deallocate_bucketsEv, symObjAddr: 0x47E4, symBinAddr: 0x100008248, symSize: 0x34 }
  - { offsetInCU: 0x32ECA, offset: 0x32ECA, size: 0x8, addend: 0x0, symName: __ZNSt10_HashtableINSt7__cxx1112basic_stringIcSt11char_traitsIcESaIcEEESt4pairIKS5_5TableESaIS9_ENSt8__detail10_Select1stESt8equal_toIS5_ESt4hashIS5_ENSB_18_Mod_range_hashingENSB_20_Default_ranged_hashENSB_20_Prime_rehash_policyENSB_17_Hashtable_traitsILb1ELb0ELb1EEEE5clearEv, symObjAddr: 0x4784, symBinAddr: 0x1000081E8, symSize: 0x60 }
  - { offsetInCU: 0x32F94, offset: 0x32F94, size: 0x8, addend: 0x0, symName: __ZNSt15__new_allocatorINSt8__detail10_Hash_nodeISt4pairIKNSt7__cxx1112basic_stringIcSt11char_traitsIcESaIcEEE5TableELb1EEEED2Ev, symObjAddr: 0x4770, symBinAddr: 0x1000081D4, symSize: 0x14 }
  - { offsetInCU: 0x32F54, offset: 0x32F54, size: 0x8, addend: 0x0, symName: __ZNSt13_Rb_tree_nodeISt4pairIKNSt7__cxx1112basic_stringIcSt11char_traitsIcESaIcEEE6RecordEE9_M_valptrEv, symObjAddr: 0x4750, symBinAddr: 0x1000081B4, symSize: 0x20 }
  - { offsetInCU: 0x32F7E, offset: 0x32F7E, size: 0x8, addend: 0x0, symName: __ZNSt8_Rb_treeINSt7__cxx1112basic_stringIcSt11char_traitsIcESaIcEEESt4pairIKS5_6RecordESt10_Select1stIS9_ESt4lessIS5_ESaIS9_EE5beginEv, symObjAddr: 0x4728, symBinAddr: 0x10000818C, symSize: 0x28 }
  - { offsetInCU: 0x32FA8, offset: 0x32FA8, size: 0x8, addend: 0x0, symName: __ZNSt8_Rb_treeINSt7__cxx1112basic_stringIcSt11char_traitsIcESaIcEEESt4pairIKS5_6RecordESt10_Select1stIS9_ESt4lessIS5_ESaIS9_EE7_M_rootEv, symObjAddr: 0x4710, symBinAddr: 0x100008174, symSize: 0x18 }
  - { offsetInCU: 0x32FD2, offset: 0x32FD2, size: 0x8, addend: 0x0, symName: __ZNSt22_Optional_payload_baseI6RecordE8_M_resetEv, symObjAddr: 0x46D0, symBinAddr: 0x100008134, symSize: 0x40 }
  - { offsetInCU: 0x33059, offset: 0x33059, size: 0x8, addend: 0x0, symName: __ZNSt22_Optional_payload_baseI6RecordE8_StorageIS0_Lb0EED1Ev, symObjAddr: 0x46BC, symBinAddr: 0x100008120, symSize: 0x14 }
  - { offsetInCU: 0x330C1, offset: 0x330C1, size: 0x8, addend: 0x0, symName: __ZNSt14_Optional_baseI6RecordLb0ELb0EEC2IJRS0_ELb0EEESt10in_place_tDpOT_, symObjAddr: 0x4678, symBinAddr: 0x1000080DC, symSize: 0x44 }
  - { offsetInCU: 0x33144, offset: 0x33144, size: 0x8, addend: 0x0, symName: __ZNSt22_Optional_payload_baseI6RecordEC2IJRS0_EEESt10in_place_tDpOT_, symObjAddr: 0x4628, symBinAddr: 0x10000808C, symSize: 0x50 }
  - { offsetInCU: 0x331D4, offset: 0x331D4, size: 0x8, addend: 0x0, symName: __ZNSt22_Optional_payload_baseI6RecordE8_StorageIS0_Lb0EEC1IJRS0_EEESt10in_place_tDpOT_, symObjAddr: 0x45E8, symBinAddr: 0x10000804C, symSize: 0x40 }
  - { offsetInCU: 0x331FA, offset: 0x331FA, size: 0x8, addend: 0x0, symName: __ZN6RecordC1ERKS_, symObjAddr: 0x4588, symBinAddr: 0x100007FEC, symSize: 0x60 }
  - { offsetInCU: 0x332BF, offset: 0x332BF, size: 0x8, addend: 0x0, symName: __ZNSt13unordered_mapINSt7__cxx1112basic_stringIcSt11char_traitsIcESaIcEEESt3anySt4hashIS5_ESt8equal_toIS5_ESaISt4pairIKS5_S6_EEEC1ERKSF_, symObjAddr: 0x4560, symBinAddr: 0x100007FC4, symSize: 0x28 }
  - { offsetInCU: 0x3330B, offset: 0x3330B, size: 0x8, addend: 0x0, symName: __ZNSt17_Optional_payloadI6RecordLb0ELb0ELb0EECI1St22_Optional_payload_baseIS0_EIJRS0_EEESt10in_place_tDpOT_, symObjAddr: 0x4530, symBinAddr: 0x100007F94, symSize: 0x30 }
  - { offsetInCU: 0x3338F, offset: 0x3338F, size: 0x8, addend: 0x0, symName: __ZNSt17_Optional_payloadI6RecordLb1ELb0ELb0EECI2St22_Optional_payload_baseIS0_EIJRS0_EEESt10in_place_tDpOT_, symObjAddr: 0x4500, symBinAddr: 0x100007F64, symSize: 0x30 }
  - { offsetInCU: 0x33374, offset: 0x33374, size: 0x8, addend: 0x0, symName: __ZSt7forwardIR6RecordEOT_RNSt16remove_referenceIS2_E4typeE, symObjAddr: 0x44EC, symBinAddr: 0x100007F50, symSize: 0x14 }
  - { offsetInCU: 0x333AA, offset: 0x333AA, size: 0x8, addend: 0x0, symName: __ZNSt10_HashtableINSt7__cxx1112basic_stringIcSt11char_traitsIcESaIcEEESt4pairIKS5_8DataTypeESaIS9_ENSt8__detail10_Select1stESt8equal_toIS5_ESt4hashIS5_ENSB_18_Mod_range_hashingENSB_20_Default_ranged_hashENSB_20_Prime_rehash_policyENSB_17_Hashtable_traitsILb1ELb0ELb1EEEE18_M_assign_elementsIRKSM_EEvOT_, symObjAddr: 0x4310, symBinAddr: 0x100007D74, symSize: 0x1DC }
  - { offsetInCU: 0x33439, offset: 0x33439, size: 0x8, addend: 0x0, symName: __ZNSt10_HashtableINSt7__cxx1112basic_stringIcSt11char_traitsIcESaIcEEESt4pairIKS5_8DataTypeESaIS9_ENSt8__detail10_Select1stESt8equal_toIS5_ESt4hashIS5_ENSB_18_Mod_range_hashingENSB_20_Default_ranged_hashENSB_20_Prime_rehash_policyENSB_17_Hashtable_traitsILb1ELb0ELb1EEEE8_M_resetEv, symObjAddr: 0x42B8, symBinAddr: 0x100007D1C, symSize: 0x58 }
  - { offsetInCU: 0x33490, offset: 0x33490, size: 0x8, addend: 0x0, symName: __ZNSt8__detail16_Hashtable_allocISaINS_10_Hash_nodeISt4pairIKNSt7__cxx1112basic_stringIcSt11char_traitsIcESaIcEEE8DataTypeELb1EEEEE19_M_deallocate_nodesEPSC_, symObjAddr: 0x4268, symBinAddr: 0x100007CCC, symSize: 0x50 }
  - { offsetInCU: 0x334EF, offset: 0x334EF, size: 0x8, addend: 0x0, symName: __ZNKSt10_HashtableINSt7__cxx1112basic_stringIcSt11char_traitsIcESaIcEEESt4pairIKS5_8DataTypeESaIS9_ENSt8__detail10_Select1stESt8equal_toIS5_ESt4hashIS5_ENSB_18_Mod_range_hashingENSB_20_Default_ranged_hashENSB_20_Prime_rehash_policyENSB_17_Hashtable_traitsILb1ELb0ELb1EEEE8_M_beginEv, symObjAddr: 0x4250, symBinAddr: 0x100007CB4, symSize: 0x18 }
  - { offsetInCU: 0x3352B, offset: 0x3352B, size: 0x8, addend: 0x0, symName: __ZNSt8__detail16_Hashtable_allocISaINS_10_Hash_nodeISt4pairIKNSt7__cxx1112basic_stringIcSt11char_traitsIcESaIcEEE8DataTypeELb1EEEEE17_M_node_allocatorEv, symObjAddr: 0x4234, symBinAddr: 0x100007C98, symSize: 0x1C }
  - { offsetInCU: 0x33555, offset: 0x33555, size: 0x8, addend: 0x0, symName: __ZNSt10_HashtableINSt7__cxx1112basic_stringIcSt11char_traitsIcESaIcEEESt4pairIKS5_St3anyESaIS9_ENSt8__detail10_Select1stESt8equal_toIS5_ESt4hashIS5_ENSB_18_Mod_range_hashingENSB_20_Default_ranged_hashENSB_20_Prime_rehash_policyENSB_17_Hashtable_traitsILb1ELb0ELb1EEEE18_M_assign_elementsIRKSM_EEvOT_, symObjAddr: 0x4058, symBinAddr: 0x100007ABC, symSize: 0x1DC }
  - { offsetInCU: 0x335E4, offset: 0x335E4, size: 0x8, addend: 0x0, symName: __ZNSt10_HashtableINSt7__cxx1112basic_stringIcSt11char_traitsIcESaIcEEESt4pairIKS5_St3anyESaIS9_ENSt8__detail10_Select1stESt8equal_toIS5_ESt4hashIS5_ENSB_18_Mod_range_hashingENSB_20_Default_ranged_hashENSB_20_Prime_rehash_policyENSB_17_Hashtable_traitsILb1ELb0ELb1EEEE8_M_resetEv, symObjAddr: 0x4000, symBinAddr: 0x100007A64, symSize: 0x58 }
  - { offsetInCU: 0x33615, offset: 0x33615, size: 0x8, addend: 0x0, symName: __ZNSt10_HashtableINSt7__cxx1112basic_stringIcSt11char_traitsIcESaIcEEESt4pairIKS5_St3anyESaIS9_ENSt8__detail10_Select1stESt8equal_toIS5_ESt4hashIS5_ENSB_18_Mod_range_hashingENSB_20_Default_ranged_hashENSB_20_Prime_rehash_policyENSB_17_Hashtable_traitsILb1ELb0ELb1EEEE9_M_assignIRKSM_NSB_10_AllocNodeISaINSB_10_Hash_nodeIS9_Lb1EEEEEEEEvOT_RKT0_, symObjAddr: 0x3E00, symBinAddr: 0x100007864, symSize: 0x200 }
  - { offsetInCU: 0x33833, offset: 0x33833, size: 0x8, addend: 0x0, symName: __ZNSt8__detail10_AllocNodeISaINS_10_Hash_nodeISt4pairIKNSt7__cxx1112basic_stringIcSt11char_traitsIcESaIcEEESt3anyELb1EEEEEC1ERNS_16_Hashtable_allocISD_EE, symObjAddr: 0x3DDC, symBinAddr: 0x100007840, symSize: 0x24 }
  - { offsetInCU: 0x337F9, offset: 0x337F9, size: 0x8, addend: 0x0, symName: __ZNSt8__detail16_Hashtable_allocISaINS_10_Hash_nodeISt4pairIKNSt7__cxx1112basic_stringIcSt11char_traitsIcESaIcEEESt3anyELb1EEEEE19_M_deallocate_nodesEPSC_, symObjAddr: 0x3D8C, symBinAddr: 0x1000077F0, symSize: 0x50 }
  - { offsetInCU: 0x33858, offset: 0x33858, size: 0x8, addend: 0x0, symName: __ZNKSt10_HashtableINSt7__cxx1112basic_stringIcSt11char_traitsIcESaIcEEESt4pairIKS5_St3anyESaIS9_ENSt8__detail10_Select1stESt8equal_toIS5_ESt4hashIS5_ENSB_18_Mod_range_hashingENSB_20_Default_ranged_hashENSB_20_Prime_rehash_policyENSB_17_Hashtable_traitsILb1ELb0ELb1EEEE8_M_beginEv, symObjAddr: 0x3D74, symBinAddr: 0x1000077D8, symSize: 0x18 }
  - { offsetInCU: 0x33894, offset: 0x33894, size: 0x8, addend: 0x0, symName: __ZNKSt8__detail16_Hashtable_allocISaINS_10_Hash_nodeISt4pairIKNSt7__cxx1112basic_stringIcSt11char_traitsIcESaIcEEESt3anyELb1EEEEE17_M_node_allocatorEv, symObjAddr: 0x3D58, symBinAddr: 0x1000077BC, symSize: 0x1C }
  - { offsetInCU: 0x338BE, offset: 0x338BE, size: 0x8, addend: 0x0, symName: __ZNSt8__detail16_Hashtable_allocISaINS_10_Hash_nodeISt4pairIKNSt7__cxx1112basic_stringIcSt11char_traitsIcESaIcEEESt3anyELb1EEEEE17_M_node_allocatorEv, symObjAddr: 0x3D3C, symBinAddr: 0x1000077A0, symSize: 0x1C }
  - { offsetInCU: 0x338E8, offset: 0x338E8, size: 0x8, addend: 0x0, symName: __ZNSt8_Rb_treeINSt7__cxx1112basic_stringIcSt11char_traitsIcESaIcEEESt4pairIKS5_6RecordESt10_Select1stIS9_ESt4lessIS5_ESaIS9_EE22_M_emplace_hint_uniqueIJRKSt21piecewise_construct_tSt5tupleIJRS7_EESK_IJEEEEESt17_Rb_tree_iteratorIS9_ESt23_Rb_tree_const_iteratorIS9_EDpOT_, symObjAddr: 0x3C64, symBinAddr: 0x1000076C8, symSize: 0xD8 }
  - { offsetInCU: 0x33A28, offset: 0x33A28, size: 0x8, addend: 0x0, symName: __ZNSt23_Rb_tree_const_iteratorISt4pairIKNSt7__cxx1112basic_stringIcSt11char_traitsIcESaIcEEE6RecordEEC1ERKSt17_Rb_tree_iteratorIS9_E, symObjAddr: 0x3C3C, symBinAddr: 0x1000076A0, symSize: 0x28 }
  - { offsetInCU: 0x33A5A, offset: 0x33A5A, size: 0x8, addend: 0x0, symName: __ZNSt5tupleIJRKNSt7__cxx1112basic_stringIcSt11char_traitsIcESaIcEEEEEC1ILb1ELb1EEES7_, symObjAddr: 0x3C14, symBinAddr: 0x100007678, symSize: 0x28 }
  - { offsetInCU: 0x33A41, offset: 0x33A41, size: 0x8, addend: 0x0, symName: __ZNKSt4lessINSt7__cxx1112basic_stringIcSt11char_traitsIcESaIcEEEEclERKS5_S8_, symObjAddr: 0x3BEC, symBinAddr: 0x100007650, symSize: 0x28 }
  - { offsetInCU: 0x33A8D, offset: 0x33A8D, size: 0x8, addend: 0x0, symName: __ZNKSt3mapINSt7__cxx1112basic_stringIcSt11char_traitsIcESaIcEEE6RecordSt4lessIS5_ESaISt4pairIKS5_S6_EEE8key_compEv, symObjAddr: 0x3BC0, symBinAddr: 0x100007624, symSize: 0x2C }
  - { offsetInCU: 0x33ABA, offset: 0x33ABA, size: 0x8, addend: 0x0, symName: __ZSteqRKSt17_Rb_tree_iteratorISt4pairIKNSt7__cxx1112basic_stringIcSt11char_traitsIcESaIcEEE6RecordEESC_, symObjAddr: 0x3B90, symBinAddr: 0x1000075F4, symSize: 0x30 }
  - { offsetInCU: 0x33AF9, offset: 0x33AF9, size: 0x8, addend: 0x0, symName: __ZNSt3mapINSt7__cxx1112basic_stringIcSt11char_traitsIcESaIcEEE6RecordSt4lessIS5_ESaISt4pairIKS5_S6_EEE11lower_boundERSA_, symObjAddr: 0x3B6C, symBinAddr: 0x1000075D0, symSize: 0x24 }
  - { offsetInCU: 0x33B34, offset: 0x33B34, size: 0x8, addend: 0x0, symName: __ZNSt8_Rb_treeINSt7__cxx1112basic_stringIcSt11char_traitsIcESaIcEEESt4pairIKS5_6RecordESt10_Select1stIS9_ESt4lessIS5_ESaIS9_EE3endEv, symObjAddr: 0x3B44, symBinAddr: 0x1000075A8, symSize: 0x28 }
  - { offsetInCU: 0x33B5E, offset: 0x33B5E, size: 0x8, addend: 0x0, symName: __ZNSt8_Rb_treeINSt7__cxx1112basic_stringIcSt11char_traitsIcESaIcEEESt4pairIKS5_6RecordESt10_Select1stIS9_ESt4lessIS5_ESaIS9_EE4findERS7_, symObjAddr: 0x3A9C, symBinAddr: 0x100007500, symSize: 0xA8 }
  - { offsetInCU: 0x33BA6, offset: 0x33BA6, size: 0x8, addend: 0x0, symName: __ZSt8any_castINSt7__cxx1112basic_stringIcSt11char_traitsIcESaIcEEEEPT_PSt3any, symObjAddr: 0x3A6C, symBinAddr: 0x1000074D0, symSize: 0x30 }
  - { offsetInCU: 0x33BDD, offset: 0x33BDD, size: 0x8, addend: 0x0, symName: __ZNSt8_Rb_treeINSt7__cxx1112basic_stringIcSt11char_traitsIcESaIcEEESt4pairIKS5_6RecordESt10_Select1stIS9_ESt4lessIS5_ESaIS9_EE8_M_beginEv, symObjAddr: 0x3A50, symBinAddr: 0x1000074B4, symSize: 0x1C }
  - { offsetInCU: 0x33C07, offset: 0x33C07, size: 0x8, addend: 0x0, symName: __ZNSt8_Rb_treeINSt7__cxx1112basic_stringIcSt11char_traitsIcESaIcEEESt4pairIKS5_6RecordESt10_Select1stIS9_ESt4lessIS5_ESaIS9_EE8_M_eraseEPSt13_Rb_tree_nodeIS9_E, symObjAddr: 0x39EC, symBinAddr: 0x100007450, symSize: 0x64 }
  - { offsetInCU: 0x33CFB, offset: 0x33CFB, size: 0x8, addend: 0x0, symName: __ZNSt15__new_allocatorISt13_Rb_tree_nodeISt4pairIKNSt7__cxx1112basic_stringIcSt11char_traitsIcESaIcEEE6RecordEEED2Ev, symObjAddr: 0x39D8, symBinAddr: 0x10000743C, symSize: 0x14 }
  - { offsetInCU: 0x33D25, offset: 0x33D25, size: 0x8, addend: 0x0, symName: __ZNSt20_Rb_tree_key_compareISt4lessINSt7__cxx1112basic_stringIcSt11char_traitsIcESaIcEEEEEC2Ev, symObjAddr: 0x39C4, symBinAddr: 0x100007428, symSize: 0x14 }
  - { offsetInCU: 0x33D1C, offset: 0x33D1C, size: 0x8, addend: 0x0, symName: __ZNSt8__detail19_Node_iterator_baseISt4pairIKNSt7__cxx1112basic_stringIcSt11char_traitsIcESaIcEEESt3anyELb1EE7_M_incrEv, symObjAddr: 0x3994, symBinAddr: 0x1000073F8, symSize: 0x30 }
  - { offsetInCU: 0x33D46, offset: 0x33D46, size: 0x8, addend: 0x0, symName: __ZNKSt10_HashtableINSt7__cxx1112basic_stringIcSt11char_traitsIcESaIcEEESt4pairIKS5_St3anyESaIS9_ENSt8__detail10_Select1stESt8equal_toIS5_ESt4hashIS5_ENSB_18_Mod_range_hashingENSB_20_Default_ranged_hashENSB_20_Prime_rehash_policyENSB_17_Hashtable_traitsILb1ELb0ELb1EEEE3endEv, symObjAddr: 0x3970, symBinAddr: 0x1000073D4, symSize: 0x24 }
  - { offsetInCU: 0x33D70, offset: 0x33D70, size: 0x8, addend: 0x0, symName: __ZNKSt10_HashtableINSt7__cxx1112basic_stringIcSt11char_traitsIcESaIcEEESt4pairIKS5_St3anyESaIS9_ENSt8__detail10_Select1stESt8equal_toIS5_ESt4hashIS5_ENSB_18_Mod_range_hashingENSB_20_Default_ranged_hashENSB_20_Prime_rehash_policyENSB_17_Hashtable_traitsILb1ELb0ELb1EEEE5beginEv, symObjAddr: 0x3944, symBinAddr: 0x1000073A8, symSize: 0x2C }
  - { offsetInCU: 0x33D9A, offset: 0x33D9A, size: 0x8, addend: 0x0, symName: __ZNKSt8__detail9_Map_baseINSt7__cxx1112basic_stringIcSt11char_traitsIcESaIcEEESt4pairIKS6_St3anyESaISA_ENS_10_Select1stESt8equal_toIS6_ESt4hashIS6_ENS_18_Mod_range_hashingENS_20_Default_ranged_hashENS_20_Prime_rehash_policyENS_17_Hashtable_traitsILb1ELb0ELb1EEELb1EE2atERS8_, symObjAddr: 0x38F8, symBinAddr: 0x10000735C, symSize: 0x4C }
  - { offsetInCU: 0x33DE6, offset: 0x33DE6, size: 0x8, addend: 0x0, symName: __ZNSt8__detail9_Map_baseINSt7__cxx1112basic_stringIcSt11char_traitsIcESaIcEEESt4pairIKS6_St3anyESaISA_ENS_10_Select1stESt8equal_toIS6_ESt4hashIS6_ENS_18_Mod_range_hashingENS_20_Default_ranged_hashENS_20_Prime_rehash_policyENS_17_Hashtable_traitsILb1ELb0ELb1EEELb1EEixERS8_, symObjAddr: 0x37D8, symBinAddr: 0x10000723C, symSize: 0x120 }
  - { offsetInCU: 0x33EF4, offset: 0x33EF4, size: 0x8, addend: 0x0, symName: __ZNSt10_HashtableINSt7__cxx1112basic_stringIcSt11char_traitsIcESaIcEEESt4pairIKS5_8DataTypeESaIS9_ENSt8__detail10_Select1stESt8equal_toIS5_ESt4hashIS5_ENSB_18_Mod_range_hashingENSB_20_Default_ranged_hashENSB_20_Prime_rehash_policyENSB_17_Hashtable_traitsILb1ELb0ELb1EEEE9_M_assignIRKSM_NSB_10_AllocNodeISaINSB_10_Hash_nodeIS9_Lb1EEEEEEEEvOT_RKT0_, symObjAddr: 0x35D8, symBinAddr: 0x10000703C, symSize: 0x200 }
  - { offsetInCU: 0x34115, offset: 0x34115, size: 0x8, addend: 0x0, symName: __ZNSt8__detail10_AllocNodeISaINS_10_Hash_nodeISt4pairIKNSt7__cxx1112basic_stringIcSt11char_traitsIcESaIcEEE8DataTypeELb1EEEEEC1ERNS_16_Hashtable_allocISD_EE, symObjAddr: 0x35B4, symBinAddr: 0x100007018, symSize: 0x24 }
  - { offsetInCU: 0x34167, offset: 0x34167, size: 0x8, addend: 0x0, symName: __ZNSt8__detail16_Hashtable_allocISaINS_10_Hash_nodeISt4pairIKNSt7__cxx1112basic_stringIcSt11char_traitsIcESaIcEEE8DataTypeELb1EEEEEC2ISD_EEOT_, symObjAddr: 0x3584, symBinAddr: 0x100006FE8, symSize: 0x30 }
  - { offsetInCU: 0x34129, offset: 0x34129, size: 0x8, addend: 0x0, symName: __ZNKSt8__detail16_Hashtable_allocISaINS_10_Hash_nodeISt4pairIKNSt7__cxx1112basic_stringIcSt11char_traitsIcESaIcEEE8DataTypeELb1EEEEE17_M_node_allocatorEv, symObjAddr: 0x3568, symBinAddr: 0x100006FCC, symSize: 0x1C }
  - { offsetInCU: 0x34153, offset: 0x34153, size: 0x8, addend: 0x0, symName: __ZNSt10_HashtableINSt7__cxx1112basic_stringIcSt11char_traitsIcESaIcEEESt4pairIKS5_8DataTypeESaIS9_ENSt8__detail10_Select1stESt8equal_toIS5_ESt4hashIS5_ENSB_18_Mod_range_hashingENSB_20_Default_ranged_hashENSB_20_Prime_rehash_policyENSB_17_Hashtable_traitsILb1ELb0ELb1EEEE21_M_deallocate_bucketsEv, symObjAddr: 0x3534, symBinAddr: 0x100006F98, symSize: 0x34 }
  - { offsetInCU: 0x3417D, offset: 0x3417D, size: 0x8, addend: 0x0, symName: __ZNSt10_HashtableINSt7__cxx1112basic_stringIcSt11char_traitsIcESaIcEEESt4pairIKS5_8DataTypeESaIS9_ENSt8__detail10_Select1stESt8equal_toIS5_ESt4hashIS5_ENSB_18_Mod_range_hashingENSB_20_Default_ranged_hashENSB_20_Prime_rehash_policyENSB_17_Hashtable_traitsILb1ELb0ELb1EEEE5clearEv, symObjAddr: 0x34D4, symBinAddr: 0x100006F38, symSize: 0x60 }
  - { offsetInCU: 0x3424A, offset: 0x3424A, size: 0x8, addend: 0x0, symName: __ZNSt15__new_allocatorINSt8__detail10_Hash_nodeISt4pairIKNSt7__cxx1112basic_stringIcSt11char_traitsIcESaIcEEE8DataTypeELb1EEEED2Ev, symObjAddr: 0x34C0, symBinAddr: 0x100006F24, symSize: 0x14 }
  - { offsetInCU: 0x34207, offset: 0x34207, size: 0x8, addend: 0x0, symName: __ZNSt10_HashtableINSt7__cxx1112basic_stringIcSt11char_traitsIcESaIcEEESt4pairIKS5_St3anyESaIS9_ENSt8__detail10_Select1stESt8equal_toIS5_ESt4hashIS5_ENSB_18_Mod_range_hashingENSB_20_Default_ranged_hashENSB_20_Prime_rehash_policyENSB_17_Hashtable_traitsILb1ELb0ELb1EEEE21_M_deallocate_bucketsEv, symObjAddr: 0x348C, symBinAddr: 0x100006EF0, symSize: 0x34 }
  - { offsetInCU: 0x34231, offset: 0x34231, size: 0x8, addend: 0x0, symName: __ZNSt10_HashtableINSt7__cxx1112basic_stringIcSt11char_traitsIcESaIcEEESt4pairIKS5_St3anyESaIS9_ENSt8__detail10_Select1stESt8equal_toIS5_ESt4hashIS5_ENSB_18_Mod_range_hashingENSB_20_Default_ranged_hashENSB_20_Prime_rehash_policyENSB_17_Hashtable_traitsILb1ELb0ELb1EEEE5clearEv, symObjAddr: 0x342C, symBinAddr: 0x100006E90, symSize: 0x60 }
  - { offsetInCU: 0x342FB, offset: 0x342FB, size: 0x8, addend: 0x0, symName: __ZNSt15__new_allocatorINSt8__detail10_Hash_nodeISt4pairIKNSt7__cxx1112basic_stringIcSt11char_traitsIcESaIcEEESt3anyELb1EEEED2Ev, symObjAddr: 0x3418, symBinAddr: 0x100006E7C, symSize: 0x14 }
  - { offsetInCU: 0x342BB, offset: 0x342BB, size: 0x8, addend: 0x0, symName: __ZNKSt8__detail9_Map_baseINSt7__cxx1112basic_stringIcSt11char_traitsIcESaIcEEESt4pairIKS6_8DataTypeESaISA_ENS_10_Select1stESt8equal_toIS6_ESt4hashIS6_ENS_18_Mod_range_hashingENS_20_Default_ranged_hashENS_20_Prime_rehash_policyENS_17_Hashtable_traitsILb1ELb0ELb1EEELb1EE2atERS8_, symObjAddr: 0x33CC, symBinAddr: 0x100006E30, symSize: 0x4C }
  - { offsetInCU: 0x34307, offset: 0x34307, size: 0x8, addend: 0x0, symName: __ZNKSt10_HashtableINSt7__cxx1112basic_stringIcSt11char_traitsIcESaIcEEESt4pairIKS5_8DataTypeESaIS9_ENSt8__detail10_Select1stESt8equal_toIS5_ESt4hashIS5_ENSB_18_Mod_range_hashingENSB_20_Default_ranged_hashENSB_20_Prime_rehash_policyENSB_17_Hashtable_traitsILb1ELb0ELb1EEEE3endEv, symObjAddr: 0x33A8, symBinAddr: 0x100006E0C, symSize: 0x24 }
  - { offsetInCU: 0x34331, offset: 0x34331, size: 0x8, addend: 0x0, symName: __ZNKSt10_HashtableINSt7__cxx1112basic_stringIcSt11char_traitsIcESaIcEEESt4pairIKS5_8DataTypeESaIS9_ENSt8__detail10_Select1stESt8equal_toIS5_ESt4hashIS5_ENSB_18_Mod_range_hashingENSB_20_Default_ranged_hashENSB_20_Prime_rehash_policyENSB_17_Hashtable_traitsILb1ELb0ELb1EEEE4findERS7_, symObjAddr: 0x32B0, symBinAddr: 0x100006D14, symSize: 0xF8 }
  - { offsetInCU: 0x343B2, offset: 0x343B2, size: 0x8, addend: 0x0, symName: __ZNSt8__detail9_Map_baseINSt7__cxx1112basic_stringIcSt11char_traitsIcESaIcEEESt4pairIKS6_8DataTypeESaISA_ENS_10_Select1stESt8equal_toIS6_ESt4hashIS6_ENS_18_Mod_range_hashingENS_20_Default_ranged_hashENS_20_Prime_rehash_policyENS_17_Hashtable_traitsILb1ELb0ELb1EEELb1EEixERS8_, symObjAddr: 0x3190, symBinAddr: 0x100006BF4, symSize: 0x120 }
  - { offsetInCU: 0x344B9, offset: 0x344B9, size: 0x8, addend: 0x0, symName: __ZNSt7__cxx1112basic_stringIcSt11char_traitsIcESaIcEE12_M_constructIPKcEEvT_S8_St20forward_iterator_tag, symObjAddr: 0x3090, symBinAddr: 0x100006AF4, symSize: 0x100 }
  - { offsetInCU: 0x34638, offset: 0x34638, size: 0x8, addend: 0x0, symName: __ZZNSt7__cxx1112basic_stringIcSt11char_traitsIcESaIcEE12_M_constructIPKcEEvT_S8_St20forward_iterator_tagEN6_GuardC1EPS4_, symObjAddr: 0x3038, symBinAddr: 0x100006A9C, symSize: 0x24 }
  - { offsetInCU: 0x34669, offset: 0x34669, size: 0x8, addend: 0x0, symName: __ZZNSt7__cxx1112basic_stringIcSt11char_traitsIcESaIcEE12_M_constructIPKcEEvT_S8_St20forward_iterator_tagEN6_GuardD1Ev, symObjAddr: 0x305C, symBinAddr: 0x100006AC0, symSize: 0x34 }
  - { offsetInCU: 0x34710, offset: 0x34710, size: 0x8, addend: 0x0, symName: __ZNSt15__new_allocatorIcED2Ev, symObjAddr: 0x3024, symBinAddr: 0x100006A88, symSize: 0x14 }
  - { offsetInCU: 0x3475A, offset: 0x3475A, size: 0x8, addend: 0x0, symName: __ZN9__gnu_cxx11char_traitsIcE2eqERKcS3_, symObjAddr: 0x2FF4, symBinAddr: 0x100006A58, symSize: 0x30 }
  - { offsetInCU: 0x34797, offset: 0x34797, size: 0x8, addend: 0x0, symName: __ZNSt8optionalI6RecordEptEv, symObjAddr: 0x2FD4, symBinAddr: 0x100006A38, symSize: 0x20 }
  - { offsetInCU: 0x347C1, offset: 0x347C1, size: 0x8, addend: 0x0, symName: __ZNKSt8optionalI6RecordEcvbEv, symObjAddr: 0x2FB8, symBinAddr: 0x100006A1C, symSize: 0x1C }
  - { offsetInCU: 0x3485B, offset: 0x3485B, size: 0x8, addend: 0x0, symName: __ZNSt3anyC1IiiNS_17_Manager_internalIiEELb1EEEOT_, symObjAddr: 0x2F5C, symBinAddr: 0x1000069C0, symSize: 0x5C }
  - { offsetInCU: 0x3491E, offset: 0x3491E, size: 0x8, addend: 0x0, symName: __ZNSt3anyC1INSt7__cxx1112basic_stringIcSt11char_traitsIcESaIcEEES6_NS_17_Manager_externalIS6_EELb1EEEOT_, symObjAddr: 0x2F00, symBinAddr: 0x100006964, symSize: 0x5C }
  - { offsetInCU: 0x34903, offset: 0x34903, size: 0x8, addend: 0x0, symName: __ZNSt8_Rb_treeINSt7__cxx1112basic_stringIcSt11char_traitsIcESaIcEEESt4pairIKS5_6RecordESt10_Select1stIS9_ESt4lessIS5_ESaIS9_EEaSEOSF_, symObjAddr: 0x2EC4, symBinAddr: 0x100006928, symSize: 0x3C }
  - { offsetInCU: 0x3493E, offset: 0x3493E, size: 0x8, addend: 0x0, symName: __ZNSt10_HashtableINSt7__cxx1112basic_stringIcSt11char_traitsIcESaIcEEESt4pairIKS5_8DataTypeESaIS9_ENSt8__detail10_Select1stESt8equal_toIS5_ESt4hashIS5_ENSB_18_Mod_range_hashingENSB_20_Default_ranged_hashENSB_20_Prime_rehash_policyENSB_17_Hashtable_traitsILb1ELb0ELb1EEEEaSEOSM_, symObjAddr: 0x2E80, symBinAddr: 0x1000068E4, symSize: 0x44 }
  - { offsetInCU: 0x3498A, offset: 0x3498A, size: 0x8, addend: 0x0, symName: __ZNSt13unordered_mapINSt7__cxx1112basic_stringIcSt11char_traitsIcESaIcEEE5TableSt4hashIS5_ESt8equal_toIS5_ESaISt4pairIKS5_S6_EEEixERSC_, symObjAddr: 0x2E5C, symBinAddr: 0x1000068C0, symSize: 0x24 }
  - { offsetInCU: 0x349C8, offset: 0x349C8, size: 0x8, addend: 0x0, symName: __ZNSt8__detaileqERKNS_19_Node_iterator_baseISt4pairIKNSt7__cxx1112basic_stringIcSt11char_traitsIcESaIcEEE5TableELb1EEESD_, symObjAddr: 0x2E2C, symBinAddr: 0x100006890, symSize: 0x30 }
  - { offsetInCU: 0x34A07, offset: 0x34A07, size: 0x8, addend: 0x0, symName: __ZNSt13unordered_mapINSt7__cxx1112basic_stringIcSt11char_traitsIcESaIcEEE5TableSt4hashIS5_ESt8equal_toIS5_ESaISt4pairIKS5_S6_EEE3endEv, symObjAddr: 0x2E10, symBinAddr: 0x100006874, symSize: 0x1C }
  - { offsetInCU: 0x34A31, offset: 0x34A31, size: 0x8, addend: 0x0, symName: __ZNSt13unordered_mapINSt7__cxx1112basic_stringIcSt11char_traitsIcESaIcEEE5TableSt4hashIS5_ESt8equal_toIS5_ESaISt4pairIKS5_S6_EEE4findERSC_, symObjAddr: 0x2DEC, symBinAddr: 0x100006850, symSize: 0x24 }
  - { offsetInCU: 0x34B9C, offset: 0x34B9C, size: 0x8, addend: 0x0, symName: __ZNSt10_HashtableINSt7__cxx1112basic_stringIcSt11char_traitsIcESaIcEEESt4pairIKS5_5TableESaIS9_ENSt8__detail10_Select1stESt8equal_toIS5_ESt4hashIS5_ENSB_18_Mod_range_hashingENSB_20_Default_ranged_hashENSB_20_Prime_rehash_policyENSB_17_Hashtable_traitsILb1ELb0ELb1EEEED1Ev, symObjAddr: 0x2DBC, symBinAddr: 0x100006820, symSize: 0x30 }
  - { offsetInCU: 0x34B7E, offset: 0x34B7E, size: 0x8, addend: 0x0, symName: __ZNSt8__detail21_Hashtable_ebo_helperILi0ESaINS_10_Hash_nodeISt4pairIKNSt7__cxx1112basic_stringIcSt11char_traitsIcESaIcEEE5TableELb1EEEELb1EEC2Ev, symObjAddr: 0x2D90, symBinAddr: 0x1000067F4, symSize: 0x2C }
  - { offsetInCU: 0x34B5D, offset: 0x34B5D, size: 0x8, addend: 0x0, symName: __ZNKSt17_Rb_tree_iteratorISt4pairIKNSt7__cxx1112basic_stringIcSt11char_traitsIcESaIcEEE6RecordEEdeEv, symObjAddr: 0x2D70, symBinAddr: 0x1000067D4, symSize: 0x20 }
  - { offsetInCU: 0x34B87, offset: 0x34B87, size: 0x8, addend: 0x0, symName: __ZNSt17_Rb_tree_iteratorISt4pairIKNSt7__cxx1112basic_stringIcSt11char_traitsIcESaIcEEE6RecordEEppEv, symObjAddr: 0x2D40, symBinAddr: 0x1000067A4, symSize: 0x30 }
  - { offsetInCU: 0x34BF3, offset: 0x34BF3, size: 0x8, addend: 0x0, symName: __ZNSt8optionalI6RecordEC1ESt9nullopt_t, symObjAddr: 0x2D1C, symBinAddr: 0x100006780, symSize: 0x24 }
  - { offsetInCU: 0x34C40, offset: 0x34C40, size: 0x8, addend: 0x0, symName: __ZNSt14_Optional_baseI6RecordLb0ELb0EEC2Ev, symObjAddr: 0x2CFC, symBinAddr: 0x100006760, symSize: 0x20 }
  - { offsetInCU: 0x34C87, offset: 0x34C87, size: 0x8, addend: 0x0, symName: __ZNSt17_Optional_payloadI6RecordLb0ELb0ELb0EEC1Ev, symObjAddr: 0x2CDC, symBinAddr: 0x100006740, symSize: 0x20 }
  - { offsetInCU: 0x34CC7, offset: 0x34CC7, size: 0x8, addend: 0x0, symName: __ZNSt17_Optional_payloadI6RecordLb1ELb0ELb0EEC2Ev, symObjAddr: 0x2CBC, symBinAddr: 0x100006720, symSize: 0x20 }
  - { offsetInCU: 0x34D00, offset: 0x34D00, size: 0x8, addend: 0x0, symName: __ZNSt22_Optional_payload_baseI6RecordEC2Ev, symObjAddr: 0x2C94, symBinAddr: 0x1000066F8, symSize: 0x28 }
  - { offsetInCU: 0x34D52, offset: 0x34D52, size: 0x8, addend: 0x0, symName: __ZNSt22_Optional_payload_baseI6RecordE8_StorageIS0_Lb0EEC1Ev, symObjAddr: 0x2C80, symBinAddr: 0x1000066E4, symSize: 0x14 }
  - { offsetInCU: 0x34D91, offset: 0x34D91, size: 0x8, addend: 0x0, symName: __ZNSt17_Optional_payloadI6RecordLb0ELb0ELb0EED1Ev, symObjAddr: 0x2C58, symBinAddr: 0x1000066BC, symSize: 0x28 }
  - { offsetInCU: 0x34DDB, offset: 0x34DDB, size: 0x8, addend: 0x0, symName: __ZNSt17_Optional_payloadI6RecordLb1ELb0ELb0EED2Ev, symObjAddr: 0x2C38, symBinAddr: 0x10000669C, symSize: 0x20 }
  - { offsetInCU: 0x34E1E, offset: 0x34E1E, size: 0x8, addend: 0x0, symName: __ZNSt22_Optional_payload_baseI6RecordED2Ev, symObjAddr: 0x2C18, symBinAddr: 0x10000667C, symSize: 0x20 }
  - { offsetInCU: 0x34E72, offset: 0x34E72, size: 0x8, addend: 0x0, symName: __ZNSt8optionalI6RecordEC1IRS0_Lb1EEEOT_, symObjAddr: 0x2BD8, symBinAddr: 0x10000663C, symSize: 0x40 }
  - { offsetInCU: 0x34E86, offset: 0x34E86, size: 0x8, addend: 0x0, symName: __ZNSt3mapINSt7__cxx1112basic_stringIcSt11char_traitsIcESaIcEEE6RecordSt4lessIS5_ESaISt4pairIKS5_S6_EEE2atERSA_, symObjAddr: 0x2B2C, symBinAddr: 0x100006590, symSize: 0xAC }
  - { offsetInCU: 0x34ED2, offset: 0x34ED2, size: 0x8, addend: 0x0, symName: __ZNSt10_HashtableINSt7__cxx1112basic_stringIcSt11char_traitsIcESaIcEEESt4pairIKS5_8DataTypeESaIS9_ENSt8__detail10_Select1stESt8equal_toIS5_ESt4hashIS5_ENSB_18_Mod_range_hashingENSB_20_Default_ranged_hashENSB_20_Prime_rehash_policyENSB_17_Hashtable_traitsILb1ELb0ELb1EEEEaSERKSM_, symObjAddr: 0x299C, symBinAddr: 0x100006400, symSize: 0x190 }
  - { offsetInCU: 0x35013, offset: 0x35013, size: 0x8, addend: 0x0, symName: __ZNSt10_HashtableINSt7__cxx1112basic_stringIcSt11char_traitsIcESaIcEEESt4pairIKS5_St3anyESaIS9_ENSt8__detail10_Select1stESt8equal_toIS5_ESt4hashIS5_ENSB_18_Mod_range_hashingENSB_20_Default_ranged_hashENSB_20_Prime_rehash_policyENSB_17_Hashtable_traitsILb1ELb0ELb1EEEEaSERKSM_, symObjAddr: 0x280C, symBinAddr: 0x100006270, symSize: 0x190 }
  - { offsetInCU: 0x35154, offset: 0x35154, size: 0x8, addend: 0x0, symName: __ZNSt3mapINSt7__cxx1112basic_stringIcSt11char_traitsIcESaIcEEE6RecordSt4lessIS5_ESaISt4pairIKS5_S6_EEEixERSA_, symObjAddr: 0x2720, symBinAddr: 0x100006184, symSize: 0xEC }
  - { offsetInCU: 0x3519C, offset: 0x3519C, size: 0x8, addend: 0x0, symName: __ZStneRKSt17_Rb_tree_iteratorISt4pairIKNSt7__cxx1112basic_stringIcSt11char_traitsIcESaIcEEE6RecordEESC_, symObjAddr: 0x26F0, symBinAddr: 0x100006154, symSize: 0x30 }
  - { offsetInCU: 0x351DB, offset: 0x351DB, size: 0x8, addend: 0x0, symName: __ZNSt3mapINSt7__cxx1112basic_stringIcSt11char_traitsIcESaIcEEE6RecordSt4lessIS5_ESaISt4pairIKS5_S6_EEE3endEv, symObjAddr: 0x26D4, symBinAddr: 0x100006138, symSize: 0x1C }
  - { offsetInCU: 0x35205, offset: 0x35205, size: 0x8, addend: 0x0, symName: __ZNSt3mapINSt7__cxx1112basic_stringIcSt11char_traitsIcESaIcEEE6RecordSt4lessIS5_ESaISt4pairIKS5_S6_EEE4findERSA_, symObjAddr: 0x26B0, symBinAddr: 0x100006114, symSize: 0x24 }
  - { offsetInCU: 0x3523C, offset: 0x3523C, size: 0x8, addend: 0x0, symName: __ZSt8any_castINSt7__cxx1112basic_stringIcSt11char_traitsIcESaIcEEEET_OSt3any, symObjAddr: 0x2654, symBinAddr: 0x1000060B8, symSize: 0x5C }
  - { offsetInCU: 0x35327, offset: 0x35327, size: 0x8, addend: 0x0, symName: __ZNSt8_Rb_treeINSt7__cxx1112basic_stringIcSt11char_traitsIcESaIcEEESt4pairIKS5_6RecordESt10_Select1stIS9_ESt4lessIS5_ESaIS9_EED1Ev, symObjAddr: 0x2620, symBinAddr: 0x100006084, symSize: 0x34 }
  - { offsetInCU: 0x3539F, offset: 0x3539F, size: 0x8, addend: 0x0, symName: __ZNSt8_Rb_treeINSt7__cxx1112basic_stringIcSt11char_traitsIcESaIcEEESt4pairIKS5_6RecordESt10_Select1stIS9_ESt4lessIS5_ESaIS9_EE13_Rb_tree_implISD_Lb1EEC1Ev, symObjAddr: 0x25DC, symBinAddr: 0x100006040, symSize: 0x44 }
  - { offsetInCU: 0x35375, offset: 0x35375, size: 0x8, addend: 0x0, symName: __ZNKSt8__detail20_Node_const_iteratorISt4pairIKNSt7__cxx1112basic_stringIcSt11char_traitsIcESaIcEEESt3anyELb0ELb1EEdeEv, symObjAddr: 0x25A0, symBinAddr: 0x100006004, symSize: 0x3C }
  - { offsetInCU: 0x353E7, offset: 0x353E7, size: 0x8, addend: 0x0, symName: __ZNSt8__detail20_Node_const_iteratorISt4pairIKNSt7__cxx1112basic_stringIcSt11char_traitsIcESaIcEEESt3anyELb0ELb1EEppEv, symObjAddr: 0x2580, symBinAddr: 0x100005FE4, symSize: 0x20 }
  - { offsetInCU: 0x35414, offset: 0x35414, size: 0x8, addend: 0x0, symName: __ZNSt8__detailneERKNS_19_Node_iterator_baseISt4pairIKNSt7__cxx1112basic_stringIcSt11char_traitsIcESaIcEEESt3anyELb1EEESD_, symObjAddr: 0x2550, symBinAddr: 0x100005FB4, symSize: 0x30 }
  - { offsetInCU: 0x35453, offset: 0x35453, size: 0x8, addend: 0x0, symName: __ZNKSt13unordered_mapINSt7__cxx1112basic_stringIcSt11char_traitsIcESaIcEEESt3anySt4hashIS5_ESt8equal_toIS5_ESaISt4pairIKS5_S6_EEE3endEv, symObjAddr: 0x2534, symBinAddr: 0x100005F98, symSize: 0x1C }
  - { offsetInCU: 0x3547D, offset: 0x3547D, size: 0x8, addend: 0x0, symName: __ZNKSt13unordered_mapINSt7__cxx1112basic_stringIcSt11char_traitsIcESaIcEEESt3anySt4hashIS5_ESt8equal_toIS5_ESaISt4pairIKS5_S6_EEE5beginEv, symObjAddr: 0x2518, symBinAddr: 0x100005F7C, symSize: 0x1C }
  - { offsetInCU: 0x354A7, offset: 0x354A7, size: 0x8, addend: 0x0, symName: __ZNKSt13unordered_mapINSt7__cxx1112basic_stringIcSt11char_traitsIcESaIcEEESt3anySt4hashIS5_ESt8equal_toIS5_ESaISt4pairIKS5_S6_EEE2atERSC_, symObjAddr: 0x24F4, symBinAddr: 0x100005F58, symSize: 0x24 }
  - { offsetInCU: 0x354E2, offset: 0x354E2, size: 0x8, addend: 0x0, symName: __ZNSt13unordered_mapINSt7__cxx1112basic_stringIcSt11char_traitsIcESaIcEEESt3anySt4hashIS5_ESt8equal_toIS5_ESaISt4pairIKS5_S6_EEEixERSC_, symObjAddr: 0x24D0, symBinAddr: 0x100005F34, symSize: 0x24 }
  - { offsetInCU: 0x35669, offset: 0x35669, size: 0x8, addend: 0x0, symName: __ZNSt10_HashtableINSt7__cxx1112basic_stringIcSt11char_traitsIcESaIcEEESt4pairIKS5_8DataTypeESaIS9_ENSt8__detail10_Select1stESt8equal_toIS5_ESt4hashIS5_ENSB_18_Mod_range_hashingENSB_20_Default_ranged_hashENSB_20_Prime_rehash_policyENSB_17_Hashtable_traitsILb1ELb0ELb1EEEEC1ERKSM_, symObjAddr: 0x23B4, symBinAddr: 0x100005E18, symSize: 0x11C }
  - { offsetInCU: 0x357C9, offset: 0x357C9, size: 0x8, addend: 0x0, symName: __ZNSt10_HashtableINSt7__cxx1112basic_stringIcSt11char_traitsIcESaIcEEESt4pairIKS5_8DataTypeESaIS9_ENSt8__detail10_Select1stESt8equal_toIS5_ESt4hashIS5_ENSB_18_Mod_range_hashingENSB_20_Default_ranged_hashENSB_20_Prime_rehash_policyENSB_17_Hashtable_traitsILb1ELb0ELb1EEEED1Ev, symObjAddr: 0x2384, symBinAddr: 0x100005DE8, symSize: 0x30 }
  - { offsetInCU: 0x357AB, offset: 0x357AB, size: 0x8, addend: 0x0, symName: __ZNSt8__detail21_Hashtable_ebo_helperILi0ESaINS_10_Hash_nodeISt4pairIKNSt7__cxx1112basic_stringIcSt11char_traitsIcESaIcEEE8DataTypeELb1EEEELb1EEC2Ev, symObjAddr: 0x2358, symBinAddr: 0x100005DBC, symSize: 0x2C }
  - { offsetInCU: 0x358B7, offset: 0x358B7, size: 0x8, addend: 0x0, symName: __ZNSt10_HashtableINSt7__cxx1112basic_stringIcSt11char_traitsIcESaIcEEESt4pairIKS5_St3anyESaIS9_ENSt8__detail10_Select1stESt8equal_toIS5_ESt4hashIS5_ENSB_18_Mod_range_hashingENSB_20_Default_ranged_hashENSB_20_Prime_rehash_policyENSB_17_Hashtable_traitsILb1ELb0ELb1EEEED1Ev, symObjAddr: 0x2328, symBinAddr: 0x100005D8C, symSize: 0x30 }
  - { offsetInCU: 0x35899, offset: 0x35899, size: 0x8, addend: 0x0, symName: __ZNSt8__detail21_Hashtable_ebo_helperILi0ESaINS_10_Hash_nodeISt4pairIKNSt7__cxx1112basic_stringIcSt11char_traitsIcESaIcEEESt3anyELb1EEEELb1EEC2Ev, symObjAddr: 0x22FC, symBinAddr: 0x100005D60, symSize: 0x2C }
  - { offsetInCU: 0x35903, offset: 0x35903, size: 0x8, addend: 0x0, symName: __ZNSt8__detail21_Hashtable_ebo_helperILi0ESt8equal_toINSt7__cxx1112basic_stringIcSt11char_traitsIcESaIcEEEELb1EEC2Ev, symObjAddr: 0x22E8, symBinAddr: 0x100005D4C, symSize: 0x14 }
  - { offsetInCU: 0x3593F, offset: 0x3593F, size: 0x8, addend: 0x0, symName: __ZNSt8__detail21_Hashtable_ebo_helperILi1ESt4hashINSt7__cxx1112basic_stringIcSt11char_traitsIcESaIcEEEELb1EEC2Ev, symObjAddr: 0x22D4, symBinAddr: 0x100005D38, symSize: 0x14 }
  - { offsetInCU: 0x358F8, offset: 0x358F8, size: 0x8, addend: 0x0, symName: __ZNKSt13unordered_mapINSt7__cxx1112basic_stringIcSt11char_traitsIcESaIcEEE8DataTypeSt4hashIS5_ESt8equal_toIS5_ESaISt4pairIKS5_S6_EEE2atERSC_, symObjAddr: 0x22B0, symBinAddr: 0x100005D14, symSize: 0x24 }
  - { offsetInCU: 0x35936, offset: 0x35936, size: 0x8, addend: 0x0, symName: __ZNSt8__detailneERKNS_19_Node_iterator_baseISt4pairIKNSt7__cxx1112basic_stringIcSt11char_traitsIcESaIcEEE8DataTypeELb1EEESD_, symObjAddr: 0x2280, symBinAddr: 0x100005CE4, symSize: 0x30 }
  - { offsetInCU: 0x35975, offset: 0x35975, size: 0x8, addend: 0x0, symName: __ZNKSt13unordered_mapINSt7__cxx1112basic_stringIcSt11char_traitsIcESaIcEEE8DataTypeSt4hashIS5_ESt8equal_toIS5_ESaISt4pairIKS5_S6_EEE3endEv, symObjAddr: 0x2264, symBinAddr: 0x100005CC8, symSize: 0x1C }
  - { offsetInCU: 0x3599F, offset: 0x3599F, size: 0x8, addend: 0x0, symName: __ZNKSt13unordered_mapINSt7__cxx1112basic_stringIcSt11char_traitsIcESaIcEEE8DataTypeSt4hashIS5_ESt8equal_toIS5_ESaISt4pairIKS5_S6_EEE4findERSC_, symObjAddr: 0x2240, symBinAddr: 0x100005CA4, symSize: 0x24 }
  - { offsetInCU: 0x359DA, offset: 0x359DA, size: 0x8, addend: 0x0, symName: __ZNSt13unordered_mapINSt7__cxx1112basic_stringIcSt11char_traitsIcESaIcEEE8DataTypeSt4hashIS5_ESt8equal_toIS5_ESaISt4pairIKS5_S6_EEEixERSC_, symObjAddr: 0x221C, symBinAddr: 0x100005C80, symSize: 0x24 }
  - { offsetInCU: 0x35A11, offset: 0x35A11, size: 0x8, addend: 0x0, symName: __ZSteqIcSt11char_traitsIcESaIcEEbRKNSt7__cxx1112basic_stringIT_T0_T1_EESA_, symObjAddr: 0x219C, symBinAddr: 0x100005C00, symSize: 0x80 }
  - { offsetInCU: 0x35A6E, offset: 0x35A6E, size: 0x8, addend: 0x0, symName: __ZSt4moveIRNSt7__cxx1112basic_stringIcSt11char_traitsIcESaIcEEEEONSt16remove_referenceIT_E4typeEOS8_, symObjAddr: 0x2188, symBinAddr: 0x100005BEC, symSize: 0x14 }
  - { offsetInCU: 0x35B2D, offset: 0x35B2D, size: 0x8, addend: 0x0, symName: __ZNSt7__cxx1112basic_stringIcSt11char_traitsIcESaIcEEC1IS3_EEPKcRKS3_, symObjAddr: 0x20EC, symBinAddr: 0x100005B50, symSize: 0x9C }
  - { offsetInCU: 0x35B53, offset: 0x35B53, size: 0x8, addend: 0x0, symName: __ZSt7forwardIiEOT_RNSt16remove_referenceIS0_E4typeE, symObjAddr: 0x20D8, symBinAddr: 0x100005B3C, symSize: 0x14 }
  - { offsetInCU: 0x35C2A, offset: 0x35C2A, size: 0x8, addend: 0x0, symName: __ZNSt7__cxx1112basic_stringIcSt11char_traitsIcESaIcEE12_Alloc_hiderD1Ev, symObjAddr: 0x20AC, symBinAddr: 0x100005B10, symSize: 0x2C }
  - { offsetInCU: 0x35C2B, offset: 0x35C2B, size: 0x8, addend: 0x0, symName: __ZN9__gnu_cxx11char_traitsIcE6lengthEPKc, symObjAddr: 0x2054, symBinAddr: 0x100005AB8, symSize: 0x58 }
  - { offsetInCU: 0x35C6D, offset: 0x35C6D, size: 0x8, addend: 0x0, symName: _main, symObjAddr: 0x187C, symBinAddr: 0x1000052E0, symSize: 0x7D8 }
  - { offsetInCU: 0x3642E, offset: 0x3642E, size: 0x8, addend: 0x0, symName: __ZN6RecordD1Ev, symObjAddr: 0x1850, symBinAddr: 0x1000052B4, symSize: 0x2C }
  - { offsetInCU: 0x36449, offset: 0x36449, size: 0x8, addend: 0x0, symName: __ZN2DB8getTableERKNSt7__cxx1112basic_stringIcSt11char_traitsIcESaIcEEE, symObjAddr: 0x17A4, symBinAddr: 0x100005208, symSize: 0xAC }
  - { offsetInCU: 0x36483, offset: 0x36483, size: 0x8, addend: 0x0, symName: __ZN2DB11createTableERKNSt7__cxx1112basic_stringIcSt11char_traitsIcESaIcEEERK6SchemaS7_, symObjAddr: 0x16EC, symBinAddr: 0x100005150, symSize: 0xB8 }
  - { offsetInCU: 0x364EC, offset: 0x364EC, size: 0x8, addend: 0x0, symName: __ZN5TableaSEOS_, symObjAddr: 0x169C, symBinAddr: 0x100005100, symSize: 0x50 }
  - { offsetInCU: 0x3651E, offset: 0x3651E, size: 0x8, addend: 0x0, symName: __ZNSt3mapINSt7__cxx1112basic_stringIcSt11char_traitsIcESaIcEEE6RecordSt4lessIS5_ESaISt4pairIKS5_S6_EEEaSEOSD_, symObjAddr: 0x1674, symBinAddr: 0x1000050D8, symSize: 0x28 }
  - { offsetInCU: 0x3655C, offset: 0x3655C, size: 0x8, addend: 0x0, symName: __ZN6SchemaaSEOS_, symObjAddr: 0x164C, symBinAddr: 0x1000050B0, symSize: 0x28 }
  - { offsetInCU: 0x3658E, offset: 0x3658E, size: 0x8, addend: 0x0, symName: __ZNSt13unordered_mapINSt7__cxx1112basic_stringIcSt11char_traitsIcESaIcEEE8DataTypeSt4hashIS5_ESt8equal_toIS5_ESaISt4pairIKS5_S6_EEEaSEOSF_, symObjAddr: 0x1624, symBinAddr: 0x100005088, symSize: 0x28 }
  - { offsetInCU: 0x365F2, offset: 0x365F2, size: 0x8, addend: 0x0, symName: __ZN5TableD1Ev, symObjAddr: 0x15EC, symBinAddr: 0x100005050, symSize: 0x38 }
  - { offsetInCU: 0x3660A, offset: 0x3660A, size: 0x8, addend: 0x0, symName: __ZN2DB11getInstanceEv, symObjAddr: 0x1554, symBinAddr: 0x100004FB8, symSize: 0x98 }
  - { offsetInCU: 0x36652, offset: 0x36652, size: 0x8, addend: 0x0, symName: __ZZN2DB11getInstanceEvE8instance, symObjAddr: 0xAF40, symBinAddr: 0x10001C000, symSize: 0x0 }
  - { offsetInCU: 0x36670, offset: 0x36670, size: 0x8, addend: 0x0, symName: __ZN2DBD1Ev, symObjAddr: 0x1534, symBinAddr: 0x100004F98, symSize: 0x20 }
  - { offsetInCU: 0x366B0, offset: 0x366B0, size: 0x8, addend: 0x0, symName: __ZN2DBC1Ev, symObjAddr: 0x1514, symBinAddr: 0x100004F78, symSize: 0x20 }
  - { offsetInCU: 0x36777, offset: 0x36777, size: 0x8, addend: 0x0, symName: __ZNSt13unordered_mapINSt7__cxx1112basic_stringIcSt11char_traitsIcESaIcEEE5TableSt4hashIS5_ESt8equal_toIS5_ESaISt4pairIKS5_S6_EEED1Ev, symObjAddr: 0x14F4, symBinAddr: 0x100004F58, symSize: 0x20 }
  - { offsetInCU: 0x367B7, offset: 0x367B7, size: 0x8, addend: 0x0, symName: __ZNSt13unordered_mapINSt7__cxx1112basic_stringIcSt11char_traitsIcESaIcEEE5TableSt4hashIS5_ESt8equal_toIS5_ESaISt4pairIKS5_S6_EEEC1Ev, symObjAddr: 0x14D4, symBinAddr: 0x100004F38, symSize: 0x20 }
  - { offsetInCU: 0x36882, offset: 0x36882, size: 0x8, addend: 0x0, symName: __ZNSt10_HashtableINSt7__cxx1112basic_stringIcSt11char_traitsIcESaIcEEESt4pairIKS5_5TableESaIS9_ENSt8__detail10_Select1stESt8equal_toIS5_ESt4hashIS5_ENSB_18_Mod_range_hashingENSB_20_Default_ranged_hashENSB_20_Prime_rehash_policyENSB_17_Hashtable_traitsILb1ELb0ELb1EEEEC1Ev, symObjAddr: 0x1464, symBinAddr: 0x100004EC8, symSize: 0x70 }
  - { offsetInCU: 0x36845, offset: 0x36845, size: 0x8, addend: 0x0, symName: __ZNSt8__detail16_Hashtable_allocISaINS_10_Hash_nodeISt4pairIKNSt7__cxx1112basic_stringIcSt11char_traitsIcESaIcEEE5TableELb1EEEEED2Ev, symObjAddr: 0x1444, symBinAddr: 0x100004EA8, symSize: 0x20 }
  - { offsetInCU: 0x36885, offset: 0x36885, size: 0x8, addend: 0x0, symName: __ZNSt8__detail16_Hashtable_allocISaINS_10_Hash_nodeISt4pairIKNSt7__cxx1112basic_stringIcSt11char_traitsIcESaIcEEE5TableELb1EEEEEC2Ev, symObjAddr: 0x1424, symBinAddr: 0x100004E88, symSize: 0x20 }
  - { offsetInCU: 0x368E0, offset: 0x368E0, size: 0x8, addend: 0x0, symName: __ZNSt8__detail21_Hashtable_ebo_helperILi0ESaINS_10_Hash_nodeISt4pairIKNSt7__cxx1112basic_stringIcSt11char_traitsIcESaIcEEE5TableELb1EEEELb1EED2Ev, symObjAddr: 0x13F8, symBinAddr: 0x100004E5C, symSize: 0x2C }
  - { offsetInCU: 0x369A2, offset: 0x369A2, size: 0x8, addend: 0x0, symName: __ZNSt8__detail15_Hashtable_baseINSt7__cxx1112basic_stringIcSt11char_traitsIcESaIcEEESt4pairIKS6_5TableENS_10_Select1stESt8equal_toIS6_ESt4hashIS6_ENS_18_Mod_range_hashingENS_20_Default_ranged_hashENS_17_Hashtable_traitsILb1ELb0ELb1EEEEC2Ev, symObjAddr: 0x13D0, symBinAddr: 0x100004E34, symSize: 0x28 }
  - { offsetInCU: 0x369B1, offset: 0x369B1, size: 0x8, addend: 0x0, symName: __ZNSt8__detail15_Hash_code_baseINSt7__cxx1112basic_stringIcSt11char_traitsIcESaIcEEESt4pairIKS6_5TableENS_10_Select1stESt4hashIS6_ENS_18_Mod_range_hashingENS_20_Default_ranged_hashELb1EEC2Ev, symObjAddr: 0x13B0, symBinAddr: 0x100004E14, symSize: 0x20 }
  - { offsetInCU: 0x3691C, offset: 0x3691C, size: 0x8, addend: 0x0, symName: __ZN5Table9getRecordERKNSt7__cxx1112basic_stringIcSt11char_traitsIcESaIcEEE, symObjAddr: 0x1320, symBinAddr: 0x100004D84, symSize: 0x90 }
  - { offsetInCU: 0x36996, offset: 0x36996, size: 0x8, addend: 0x0, symName: __ZNSt8optionalI6RecordED1Ev, symObjAddr: 0x1300, symBinAddr: 0x100004D64, symSize: 0x20 }
  - { offsetInCU: 0x369F3, offset: 0x369F3, size: 0x8, addend: 0x0, symName: __ZNSt14_Optional_baseI6RecordLb0ELb0EED2Ev, symObjAddr: 0x12E0, symBinAddr: 0x100004D44, symSize: 0x20 }
  - { offsetInCU: 0x36A00, offset: 0x36A00, size: 0x8, addend: 0x0, symName: __ZN5Table12insertRecordERK6Record, symObjAddr: 0x1154, symBinAddr: 0x100004BB8, symSize: 0x18C }
  - { offsetInCU: 0x36A50, offset: 0x36A50, size: 0x8, addend: 0x0, symName: __ZN6RecordaSERKS_, symObjAddr: 0x1118, symBinAddr: 0x100004B7C, symSize: 0x3C }
  - { offsetInCU: 0x36A86, offset: 0x36A86, size: 0x8, addend: 0x0, symName: __ZN6SchemaaSERKS_, symObjAddr: 0x10F0, symBinAddr: 0x100004B54, symSize: 0x28 }
  - { offsetInCU: 0x36AB8, offset: 0x36AB8, size: 0x8, addend: 0x0, symName: __ZNSt13unordered_mapINSt7__cxx1112basic_stringIcSt11char_traitsIcESaIcEEE8DataTypeSt4hashIS5_ESt8equal_toIS5_ESaISt4pairIKS5_S6_EEEaSERKSF_, symObjAddr: 0x10C8, symBinAddr: 0x100004B2C, symSize: 0x28 }
  - { offsetInCU: 0x36AEB, offset: 0x36AEB, size: 0x8, addend: 0x0, symName: __ZNSt13unordered_mapINSt7__cxx1112basic_stringIcSt11char_traitsIcESaIcEEESt3anySt4hashIS5_ESt8equal_toIS5_ESaISt4pairIKS5_S6_EEEaSERKSF_, symObjAddr: 0x10A0, symBinAddr: 0x100004B04, symSize: 0x28 }
  - { offsetInCU: 0x36B9A, offset: 0x36B9A, size: 0x8, addend: 0x0, symName: __ZN5TableC1ERK6SchemaRKNSt7__cxx1112basic_stringIcSt11char_traitsIcESaIcEEE, symObjAddr: 0x103C, symBinAddr: 0x100004AA0, symSize: 0x64 }
  - { offsetInCU: 0x36BAE, offset: 0x36BAE, size: 0x8, addend: 0x0, symName: __ZN5TableC1Ev, symObjAddr: 0x1004, symBinAddr: 0x100004A68, symSize: 0x38 }
  - { offsetInCU: 0x36C55, offset: 0x36C55, size: 0x8, addend: 0x0, symName: __ZNSt3mapINSt7__cxx1112basic_stringIcSt11char_traitsIcESaIcEEE6RecordSt4lessIS5_ESaISt4pairIKS5_S6_EEED1Ev, symObjAddr: 0xFE4, symBinAddr: 0x100004A48, symSize: 0x20 }
  - { offsetInCU: 0x36C95, offset: 0x36C95, size: 0x8, addend: 0x0, symName: __ZNSt3mapINSt7__cxx1112basic_stringIcSt11char_traitsIcESaIcEEE6RecordSt4lessIS5_ESaISt4pairIKS5_S6_EEEC1Ev, symObjAddr: 0xFC4, symBinAddr: 0x100004A28, symSize: 0x20 }
  - { offsetInCU: 0x36CED, offset: 0x36CED, size: 0x8, addend: 0x0, symName: __ZNSt8_Rb_treeINSt7__cxx1112basic_stringIcSt11char_traitsIcESaIcEEESt4pairIKS5_6RecordESt10_Select1stIS9_ESt4lessIS5_ESaIS9_EEC1Ev, symObjAddr: 0xFA4, symBinAddr: 0x100004A08, symSize: 0x20 }
  - { offsetInCU: 0x36D53, offset: 0x36D53, size: 0x8, addend: 0x0, symName: __ZNSt8_Rb_treeINSt7__cxx1112basic_stringIcSt11char_traitsIcESaIcEEESt4pairIKS5_6RecordESt10_Select1stIS9_ESt4lessIS5_ESaIS9_EE13_Rb_tree_implISD_Lb1EED1Ev, symObjAddr: 0xF78, symBinAddr: 0x1000049DC, symSize: 0x2C }
  - { offsetInCU: 0x36D06, offset: 0x36D06, size: 0x8, addend: 0x0, symName: __ZNK6Record8validateEv, symObjAddr: 0xEAC, symBinAddr: 0x100004910, symSize: 0xCC }
  - { offsetInCU: 0x36D9D, offset: 0x36D9D, size: 0x8, addend: 0x0, symName: __ZNK6Record8getFieldERKNSt7__cxx1112basic_stringIcSt11char_traitsIcESaIcEEE, symObjAddr: 0xDFC, symBinAddr: 0x100004860, symSize: 0xB0 }
  - { offsetInCU: 0x36DD7, offset: 0x36DD7, size: 0x8, addend: 0x0, symName: __ZN6Record8setFieldERKNSt7__cxx1112basic_stringIcSt11char_traitsIcESaIcEEERKSt3any, symObjAddr: 0xD54, symBinAddr: 0x1000047B8, symSize: 0xA8 }
  - { offsetInCU: 0x36E5A, offset: 0x36E5A, size: 0x8, addend: 0x0, symName: __ZN6RecordC1ER6Schema, symObjAddr: 0xD04, symBinAddr: 0x100004768, symSize: 0x50 }
  - { offsetInCU: 0x36EA7, offset: 0x36EA7, size: 0x8, addend: 0x0, symName: __ZN6SchemaC1ERKS_, symObjAddr: 0xCDC, symBinAddr: 0x100004740, symSize: 0x28 }
  - { offsetInCU: 0x36F6F, offset: 0x36F6F, size: 0x8, addend: 0x0, symName: __ZNSt13unordered_mapINSt7__cxx1112basic_stringIcSt11char_traitsIcESaIcEEE8DataTypeSt4hashIS5_ESt8equal_toIS5_ESaISt4pairIKS5_S6_EEEC1ERKSF_, symObjAddr: 0xCB4, symBinAddr: 0x100004718, symSize: 0x28 }
  - { offsetInCU: 0x36F3B, offset: 0x36F3B, size: 0x8, addend: 0x0, symName: __ZN6RecordC1Ev, symObjAddr: 0xC88, symBinAddr: 0x1000046EC, symSize: 0x2C }
  - { offsetInCU: 0x36F88, offset: 0x36F88, size: 0x8, addend: 0x0, symName: __ZN6SchemaD1Ev, symObjAddr: 0xC68, symBinAddr: 0x1000046CC, symSize: 0x20 }
  - { offsetInCU: 0x36FCB, offset: 0x36FCB, size: 0x8, addend: 0x0, symName: __ZN6SchemaC1Ev, symObjAddr: 0xC48, symBinAddr: 0x1000046AC, symSize: 0x20 }
  - { offsetInCU: 0x37091, offset: 0x37091, size: 0x8, addend: 0x0, symName: __ZNSt13unordered_mapINSt7__cxx1112basic_stringIcSt11char_traitsIcESaIcEEE8DataTypeSt4hashIS5_ESt8equal_toIS5_ESaISt4pairIKS5_S6_EEED1Ev, symObjAddr: 0xC28, symBinAddr: 0x10000468C, symSize: 0x20 }
  - { offsetInCU: 0x370D1, offset: 0x370D1, size: 0x8, addend: 0x0, symName: __ZNSt13unordered_mapINSt7__cxx1112basic_stringIcSt11char_traitsIcESaIcEEE8DataTypeSt4hashIS5_ESt8equal_toIS5_ESaISt4pairIKS5_S6_EEEC1Ev, symObjAddr: 0xC08, symBinAddr: 0x10000466C, symSize: 0x20 }
  - { offsetInCU: 0x3719C, offset: 0x3719C, size: 0x8, addend: 0x0, symName: __ZNSt10_HashtableINSt7__cxx1112basic_stringIcSt11char_traitsIcESaIcEEESt4pairIKS5_8DataTypeESaIS9_ENSt8__detail10_Select1stESt8equal_toIS5_ESt4hashIS5_ENSB_18_Mod_range_hashingENSB_20_Default_ranged_hashENSB_20_Prime_rehash_policyENSB_17_Hashtable_traitsILb1ELb0ELb1EEEEC1Ev, symObjAddr: 0xB98, symBinAddr: 0x1000045FC, symSize: 0x70 }
  - { offsetInCU: 0x3715F, offset: 0x3715F, size: 0x8, addend: 0x0, symName: __ZNSt8__detail16_Hashtable_allocISaINS_10_Hash_nodeISt4pairIKNSt7__cxx1112basic_stringIcSt11char_traitsIcESaIcEEE8DataTypeELb1EEEEED2Ev, symObjAddr: 0xB78, symBinAddr: 0x1000045DC, symSize: 0x20 }
  - { offsetInCU: 0x3719F, offset: 0x3719F, size: 0x8, addend: 0x0, symName: __ZNSt8__detail16_Hashtable_allocISaINS_10_Hash_nodeISt4pairIKNSt7__cxx1112basic_stringIcSt11char_traitsIcESaIcEEE8DataTypeELb1EEEEEC2Ev, symObjAddr: 0xB58, symBinAddr: 0x1000045BC, symSize: 0x20 }
  - { offsetInCU: 0x371FA, offset: 0x371FA, size: 0x8, addend: 0x0, symName: __ZNSt8__detail21_Hashtable_ebo_helperILi0ESaINS_10_Hash_nodeISt4pairIKNSt7__cxx1112basic_stringIcSt11char_traitsIcESaIcEEE8DataTypeELb1EEEELb1EED2Ev, symObjAddr: 0xB2C, symBinAddr: 0x100004590, symSize: 0x2C }
  - { offsetInCU: 0x372BC, offset: 0x372BC, size: 0x8, addend: 0x0, symName: __ZNSt8__detail15_Hashtable_baseINSt7__cxx1112basic_stringIcSt11char_traitsIcESaIcEEESt4pairIKS6_8DataTypeENS_10_Select1stESt8equal_toIS6_ESt4hashIS6_ENS_18_Mod_range_hashingENS_20_Default_ranged_hashENS_17_Hashtable_traitsILb1ELb0ELb1EEEEC2Ev, symObjAddr: 0xB04, symBinAddr: 0x100004568, symSize: 0x28 }
  - { offsetInCU: 0x372CB, offset: 0x372CB, size: 0x8, addend: 0x0, symName: __ZNSt8__detail15_Hash_code_baseINSt7__cxx1112basic_stringIcSt11char_traitsIcESaIcEEESt4pairIKS6_8DataTypeENS_10_Select1stESt4hashIS6_ENS_18_Mod_range_hashingENS_20_Default_ranged_hashELb1EEC2Ev, symObjAddr: 0xAE4, symBinAddr: 0x100004548, symSize: 0x20 }
  - { offsetInCU: 0x372DB, offset: 0x372DB, size: 0x8, addend: 0x0, symName: __ZNSt13unordered_mapINSt7__cxx1112basic_stringIcSt11char_traitsIcESaIcEEESt3anySt4hashIS5_ESt8equal_toIS5_ESaISt4pairIKS5_S6_EEED1Ev, symObjAddr: 0xAC4, symBinAddr: 0x100004528, symSize: 0x20 }
  - { offsetInCU: 0x3731B, offset: 0x3731B, size: 0x8, addend: 0x0, symName: __ZNSt13unordered_mapINSt7__cxx1112basic_stringIcSt11char_traitsIcESaIcEEESt3anySt4hashIS5_ESt8equal_toIS5_ESaISt4pairIKS5_S6_EEEC1Ev, symObjAddr: 0xAA4, symBinAddr: 0x100004508, symSize: 0x20 }
  - { offsetInCU: 0x373E6, offset: 0x373E6, size: 0x8, addend: 0x0, symName: __ZNSt10_HashtableINSt7__cxx1112basic_stringIcSt11char_traitsIcESaIcEEESt4pairIKS5_St3anyESaIS9_ENSt8__detail10_Select1stESt8equal_toIS5_ESt4hashIS5_ENSB_18_Mod_range_hashingENSB_20_Default_ranged_hashENSB_20_Prime_rehash_policyENSB_17_Hashtable_traitsILb1ELb0ELb1EEEEC1Ev, symObjAddr: 0xA34, symBinAddr: 0x100004498, symSize: 0x70 }
  - { offsetInCU: 0x373A9, offset: 0x373A9, size: 0x8, addend: 0x0, symName: __ZNSt8__detail16_Hashtable_allocISaINS_10_Hash_nodeISt4pairIKNSt7__cxx1112basic_stringIcSt11char_traitsIcESaIcEEESt3anyELb1EEEEED2Ev, symObjAddr: 0xA14, symBinAddr: 0x100004478, symSize: 0x20 }
  - { offsetInCU: 0x373E9, offset: 0x373E9, size: 0x8, addend: 0x0, symName: __ZNSt8__detail16_Hashtable_allocISaINS_10_Hash_nodeISt4pairIKNSt7__cxx1112basic_stringIcSt11char_traitsIcESaIcEEESt3anyELb1EEEEEC2Ev, symObjAddr: 0x9F4, symBinAddr: 0x100004458, symSize: 0x20 }
  - { offsetInCU: 0x37444, offset: 0x37444, size: 0x8, addend: 0x0, symName: __ZNSt8__detail21_Hashtable_ebo_helperILi0ESaINS_10_Hash_nodeISt4pairIKNSt7__cxx1112basic_stringIcSt11char_traitsIcESaIcEEESt3anyELb1EEEELb1EED2Ev, symObjAddr: 0x9C8, symBinAddr: 0x10000442C, symSize: 0x2C }
  - { offsetInCU: 0x37506, offset: 0x37506, size: 0x8, addend: 0x0, symName: __ZNSt8__detail15_Hashtable_baseINSt7__cxx1112basic_stringIcSt11char_traitsIcESaIcEEESt4pairIKS6_St3anyENS_10_Select1stESt8equal_toIS6_ESt4hashIS6_ENS_18_Mod_range_hashingENS_20_Default_ranged_hashENS_17_Hashtable_traitsILb1ELb0ELb1EEEEC2Ev, symObjAddr: 0x9A0, symBinAddr: 0x100004404, symSize: 0x28 }
  - { offsetInCU: 0x37515, offset: 0x37515, size: 0x8, addend: 0x0, symName: __ZNSt8__detail15_Hash_code_baseINSt7__cxx1112basic_stringIcSt11char_traitsIcESaIcEEESt4pairIKS6_St3anyENS_10_Select1stESt4hashIS6_ENS_18_Mod_range_hashingENS_20_Default_ranged_hashELb1EEC2Ev, symObjAddr: 0x980, symBinAddr: 0x1000043E4, symSize: 0x20 }
  - { offsetInCU: 0x37480, offset: 0x37480, size: 0x8, addend: 0x0, symName: __ZNK6Schema8hasFieldERKNSt7__cxx1112basic_stringIcSt11char_traitsIcESaIcEEE, symObjAddr: 0x940, symBinAddr: 0x1000043A4, symSize: 0x40 }
  - { offsetInCU: 0x374BA, offset: 0x374BA, size: 0x8, addend: 0x0, symName: __ZNK6Schema12getFieldTypeERKNSt7__cxx1112basic_stringIcSt11char_traitsIcESaIcEEE, symObjAddr: 0x890, symBinAddr: 0x1000042F4, symSize: 0xB0 }
  - { offsetInCU: 0x374F4, offset: 0x374F4, size: 0x8, addend: 0x0, symName: __ZN6Schema8addFieldERKNSt7__cxx1112basic_stringIcSt11char_traitsIcESaIcEEE8DataType, symObjAddr: 0x854, symBinAddr: 0x1000042B8, symSize: 0x3C }
  - { offsetInCU: 0x3753E, offset: 0x3753E, size: 0x8, addend: 0x0, symName: __ZNSt15_Rb_tree_header8_M_resetEv, symObjAddr: 0x818, symBinAddr: 0x10000427C, symSize: 0x3C }
  - { offsetInCU: 0x37568, offset: 0x37568, size: 0x8, addend: 0x0, symName: __ZNSt15_Rb_tree_header12_M_move_dataERS_, symObjAddr: 0x794, symBinAddr: 0x1000041F8, symSize: 0x84 }
  - { offsetInCU: 0x375D3, offset: 0x375D3, size: 0x8, addend: 0x0, symName: __ZNSt15_Rb_tree_headerC2Ev, symObjAddr: 0x76C, symBinAddr: 0x1000041D0, symSize: 0x28 }
  - { offsetInCU: 0x375E2, offset: 0x375E2, size: 0x8, addend: 0x0, symName: __ZNKSt3any4typeEv, symObjAddr: 0x710, symBinAddr: 0x100004174, symSize: 0x5C }
  - { offsetInCU: 0x3761D, offset: 0x3761D, size: 0x8, addend: 0x0, symName: __ZNKSt3any9has_valueEv, symObjAddr: 0x6EC, symBinAddr: 0x100004150, symSize: 0x24 }
  - { offsetInCU: 0x37647, offset: 0x37647, size: 0x8, addend: 0x0, symName: __ZNSt3any5resetEv, symObjAddr: 0x6A0, symBinAddr: 0x100004104, symSize: 0x4C }
  - { offsetInCU: 0x37671, offset: 0x37671, size: 0x8, addend: 0x0, symName: __ZNSt3anyaSEOS_, symObjAddr: 0x620, symBinAddr: 0x100004084, symSize: 0x80 }
  - { offsetInCU: 0x376CE, offset: 0x376CE, size: 0x8, addend: 0x0, symName: __ZNSt3anyaSERKS_, symObjAddr: 0x5E0, symBinAddr: 0x100004044, symSize: 0x40 }
  - { offsetInCU: 0x37736, offset: 0x37736, size: 0x8, addend: 0x0, symName: __ZNSt3anyD1Ev, symObjAddr: 0x5C0, symBinAddr: 0x100004024, symSize: 0x20 }
  - { offsetInCU: 0x37796, offset: 0x37796, size: 0x8, addend: 0x0, symName: __ZNSt3anyC1ERKS_, symObjAddr: 0x54C, symBinAddr: 0x100003FB0, symSize: 0x74 }
  - { offsetInCU: 0x37809, offset: 0x37809, size: 0x8, addend: 0x0, symName: __ZNSt3anyC1Ev, symObjAddr: 0x520, symBinAddr: 0x100003F84, symSize: 0x2C }
  - { offsetInCU: 0x37852, offset: 0x37852, size: 0x8, addend: 0x0, symName: __ZNSt3any8_StorageC1Ev, symObjAddr: 0x504, symBinAddr: 0x100003F68, symSize: 0x1C }
  - { offsetInCU: 0x37862, offset: 0x37862, size: 0x8, addend: 0x0, symName: __ZSt20__throw_bad_any_castv, symObjAddr: 0x4C8, symBinAddr: 0x100003F2C, symSize: 0x3C }
  - { offsetInCU: 0x378B8, offset: 0x378B8, size: 0x8, addend: 0x0, symName: __ZNSt12bad_any_castD0Ev, symObjAddr: 0x4A0, symBinAddr: 0x100003F04, symSize: 0x28 }
  - { offsetInCU: 0x378E2, offset: 0x378E2, size: 0x8, addend: 0x0, symName: __ZNSt12bad_any_castD1Ev, symObjAddr: 0x46C, symBinAddr: 0x100003ED0, symSize: 0x34 }
  - { offsetInCU: 0x37925, offset: 0x37925, size: 0x8, addend: 0x0, symName: __ZNSt12bad_any_castC1Ev, symObjAddr: 0x438, symBinAddr: 0x100003E9C, symSize: 0x34 }
  - { offsetInCU: 0x37937, offset: 0x37937, size: 0x8, addend: 0x0, symName: __ZNKSt12bad_any_cast4whatEv, symObjAddr: 0x420, symBinAddr: 0x100003E84, symSize: 0x18 }
  - { offsetInCU: 0x37961, offset: 0x37961, size: 0x8, addend: 0x0, symName: __ZNSt8__detail20_Prime_rehash_policy8_M_resetEm, symObjAddr: 0x3FC, symBinAddr: 0x100003E60, symSize: 0x24 }
  - { offsetInCU: 0x3799C, offset: 0x3799C, size: 0x8, addend: 0x0, symName: __ZNSt8__detail20_Prime_rehash_policy8_M_resetEv, symObjAddr: 0x3E0, symBinAddr: 0x100003E44, symSize: 0x1C }
  - { offsetInCU: 0x379C6, offset: 0x379C6, size: 0x8, addend: 0x0, symName: __ZNKSt8__detail20_Prime_rehash_policy8_M_stateEv, symObjAddr: 0x3C8, symBinAddr: 0x100003E2C, symSize: 0x18 }
  - { offsetInCU: 0x37A3D, offset: 0x37A3D, size: 0x8, addend: 0x0, symName: __ZNSt8__detail20_Prime_rehash_policyC1Ef, symObjAddr: 0x39C, symBinAddr: 0x100003E00, symSize: 0x2C }
  - { offsetInCU: 0x37A47, offset: 0x37A47, size: 0x8, addend: 0x0, symName: __ZNKSt8__detail18_Mod_range_hashingclEmm, symObjAddr: 0x36C, symBinAddr: 0x100003DD0, symSize: 0x30 }
  - { offsetInCU: 0x37ACD, offset: 0x37ACD, size: 0x8, addend: 0x0, symName: __ZNSt8__detail15_Hash_node_baseC1Ev, symObjAddr: 0x350, symBinAddr: 0x100003DB4, symSize: 0x1C }
  - { offsetInCU: 0x37AF7, offset: 0x37AF7, size: 0x8, addend: 0x0, symName: __ZNSt8__detail15_Hash_node_baseC2Ev, symObjAddr: 0x334, symBinAddr: 0x100003D98, symSize: 0x1C }
  - { offsetInCU: 0x37B26, offset: 0x37B26, size: 0x8, addend: 0x0, symName: __ZNSt8bad_castC2Ev, symObjAddr: 0x300, symBinAddr: 0x100003D64, symSize: 0x34 }
  - { offsetInCU: 0x37B3D, offset: 0x37B3D, size: 0x8, addend: 0x0, symName: __ZNKSt9type_infoeqERKS_, symObjAddr: 0x250, symBinAddr: 0x100003CB4, symSize: 0xB0 }
  - { offsetInCU: 0x37B90, offset: 0x37B90, size: 0x8, addend: 0x0, symName: __ZNKSt9type_infoneERKS_, symObjAddr: 0x224, symBinAddr: 0x100003C88, symSize: 0x2C }
  - { offsetInCU: 0x37BCA, offset: 0x37BCA, size: 0x8, addend: 0x0, symName: __ZNKSt9type_info4nameEv, symObjAddr: 0x1E8, symBinAddr: 0x100003C4C, symSize: 0x3C }
  - { offsetInCU: 0x37BF0, offset: 0x37BF0, size: 0x8, addend: 0x0, symName: __ZNSt10_Hash_impl4hashEPKvmm, symObjAddr: 0x1BC, symBinAddr: 0x100003C20, symSize: 0x2C }
  - { offsetInCU: 0x37C39, offset: 0x37C39, size: 0x8, addend: 0x0, symName: __ZNSt11char_traitsIcE6lengthEPKc, symObjAddr: 0x180, symBinAddr: 0x100003BE4, symSize: 0x3C }
  - { offsetInCU: 0x37C7D, offset: 0x37C7D, size: 0x8, addend: 0x0, symName: __ZNSt11char_traitsIcE7compareEPKcS2_m, symObjAddr: 0x90, symBinAddr: 0x100003AF4, symSize: 0xF0 }
  - { offsetInCU: 0x37D07, offset: 0x37D07, size: 0x8, addend: 0x0, symName: __ZNSt11char_traitsIcE2ltERKcS2_, symObjAddr: 0x58, symBinAddr: 0x100003ABC, symSize: 0x38 }
  - { offsetInCU: 0x37D4F, offset: 0x37D4F, size: 0x8, addend: 0x0, symName: __ZdlPvS_, symObjAddr: 0x40, symBinAddr: 0x100003AA4, symSize: 0x18 }
  - { offsetInCU: 0x37D84, offset: 0x37D84, size: 0x8, addend: 0x0, symName: __ZnwmPv, symObjAddr: 0x28, symBinAddr: 0x100003A8C, symSize: 0x18 }
  - { offsetInCU: 0x37DDF, offset: 0x37DDF, size: 0x8, addend: 0x0, symName: __ZNSt9exceptionC2Ev, symObjAddr: 0x0, symBinAddr: 0x100003A64, symSize: 0x28 }
...
