---
triple:          'arm64-apple-darwin'
binary-path:     '/Users/gauravarora/Desktop/cpp/output/sqldb'
relocations:
  - { offsetInCU: 0x2CFDF, offset: 0x2CFDF, size: 0x8, addend: 0x0, symName: __ZStL8__ioinit, symObjAddr: 0x134AE0, symBinAddr: 0x100018000, symSize: 0x0 }
  - { offsetInCU: 0x2EA53, offset: 0x2EA53, size: 0x8, addend: 0x0, symName: __ZNSt10_Head_baseILm0EONSt7__cxx1112basic_stringIcSt11char_traitsIcESaIcEEELb0EE7_M_headERS7_, symObjAddr: 0x819C, symBinAddr: 0x10000C320, symSize: 0x18 }
  - { offsetInCU: 0x2EA7C, offset: 0x2EA7C, size: 0x8, addend: 0x0, symName: __ZNSt10_Head_baseILm0ERKNSt7__cxx1112basic_stringIcSt11char_traitsIcESaIcEEELb0EE7_M_headERS8_, symObjAddr: 0x8184, symBinAddr: 0x10000C308, symSize: 0x18 }
  - { offsetInCU: 0x2EAA5, offset: 0x2EAA5, size: 0x8, addend: 0x0, symName: __ZNSt11_Tuple_implILm0EJONSt7__cxx1112basic_stringIcSt11char_traitsIcESaIcEEEEE7_M_headERS7_, symObjAddr: 0x8168, symBinAddr: 0x10000C2EC, symSize: 0x1C }
  - { offsetInCU: 0x2EACF, offset: 0x2EACF, size: 0x8, addend: 0x0, symName: __ZNSt11_Tuple_implILm0EJRKNSt7__cxx1112basic_stringIcSt11char_traitsIcESaIcEEEEE7_M_headERS8_, symObjAddr: 0x814C, symBinAddr: 0x10000C2D0, symSize: 0x1C }
  - { offsetInCU: 0x2EAF9, offset: 0x2EAF9, size: 0x8, addend: 0x0, symName: __ZSt12__get_helperILm0EONSt7__cxx1112basic_stringIcSt11char_traitsIcESaIcEEEJEERT0_RSt11_Tuple_implIXT_EJS7_DpT1_EE, symObjAddr: 0x8130, symBinAddr: 0x10000C2B4, symSize: 0x1C }
  - { offsetInCU: 0x2EB3B, offset: 0x2EB3B, size: 0x8, addend: 0x0, symName: __ZSt12__get_helperILm0ERKNSt7__cxx1112basic_stringIcSt11char_traitsIcESaIcEEEJEERT0_RSt11_Tuple_implIXT_EJS8_DpT1_EE, symObjAddr: 0x8114, symBinAddr: 0x10000C298, symSize: 0x1C }
  - { offsetInCU: 0x2EB86, offset: 0x2EB86, size: 0x8, addend: 0x0, symName: __ZNK9__gnu_cxx16__aligned_bufferISt4pairIKNSt7__cxx1112basic_stringIcSt11char_traitsIcESaIcEEE9DataTypesEE7_M_addrEv, symObjAddr: 0x8100, symBinAddr: 0x10000C284, symSize: 0x14 }
  - { offsetInCU: 0x2EBB2, offset: 0x2EBB2, size: 0x8, addend: 0x0, symName: __ZSt7forwardIONSt7__cxx1112basic_stringIcSt11char_traitsIcESaIcEEEEOT_RNSt16remove_referenceIS7_E4typeE, symObjAddr: 0x80EC, symBinAddr: 0x10000C270, symSize: 0x14 }
  - { offsetInCU: 0x2EBE4, offset: 0x2EBE4, size: 0x8, addend: 0x0, symName: __ZSt3getILm0EJONSt7__cxx1112basic_stringIcSt11char_traitsIcESaIcEEEEERNSt13tuple_elementIXT_ESt5tupleIJDpT0_EEE4typeERSB_, symObjAddr: 0x80D0, symBinAddr: 0x10000C254, symSize: 0x1C }
  - { offsetInCU: 0x2EC23, offset: 0x2EC23, size: 0x8, addend: 0x0, symName: __ZSt3getILm0EJRKNSt7__cxx1112basic_stringIcSt11char_traitsIcESaIcEEEEERNSt13tuple_elementIXT_ESt5tupleIJDpT0_EEE4typeERSC_, symObjAddr: 0x80B4, symBinAddr: 0x10000C238, symSize: 0x1C }
  - { offsetInCU: 0x2EC66, offset: 0x2EC66, size: 0x8, addend: 0x0, symName: __ZNK9__gnu_cxx16__aligned_bufferISt4pairIKNSt7__cxx1112basic_stringIcSt11char_traitsIcESaIcEEE9DataTypesEE6_M_ptrEv, symObjAddr: 0x8098, symBinAddr: 0x10000C21C, symSize: 0x1C }
  - { offsetInCU: 0x2ED9D, offset: 0x2ED9D, size: 0x8, addend: 0x0, symName: __ZNSt4pairIKNSt7__cxx1112basic_stringIcSt11char_traitsIcESaIcEEE9DataTypesEC1IJOS5_EJLm0EEJEJEEERSt5tupleIJDpT_EERSB_IJDpT1_EESt12_Index_tupleIJXspT0_EEESK_IJXspT2_EEE, symObjAddr: 0x8044, symBinAddr: 0x10000C1C8, symSize: 0x54 }
  - { offsetInCU: 0x2EE1A, offset: 0x2EE1A, size: 0x8, addend: 0x0, symName: __ZNSt4pairIKNSt7__cxx1112basic_stringIcSt11char_traitsIcESaIcEEE6RecordEC1ERKS8_, symObjAddr: 0x7FE4, symBinAddr: 0x10000C168, symSize: 0x60 }
  - { offsetInCU: 0x2EDF8, offset: 0x2EDF8, size: 0x8, addend: 0x0, symName: __ZSt11__addressofINSt8__detail10_Hash_nodeISt4pairIKNSt7__cxx1112basic_stringIcSt11char_traitsIcESaIcEEE5TableELb1EEEEPT_RSD_, symObjAddr: 0x7FD0, symBinAddr: 0x10000C154, symSize: 0x14 }
  - { offsetInCU: 0x2EF37, offset: 0x2EF37, size: 0x8, addend: 0x0, symName: __ZNSt4pairIKNSt7__cxx1112basic_stringIcSt11char_traitsIcESaIcEEE5TableEC1IJRS6_EJLm0EEJEJEEERSt5tupleIJDpT_EERSB_IJDpT1_EESt12_Index_tupleIJXspT0_EEESK_IJXspT2_EEE, symObjAddr: 0x7F78, symBinAddr: 0x10000C0FC, symSize: 0x58 }
  - { offsetInCU: 0x2F085, offset: 0x2F085, size: 0x8, addend: 0x0, symName: __ZNSt4pairIKNSt7__cxx1112basic_stringIcSt11char_traitsIcESaIcEEE9DataTypesEC1IJRS6_EJLm0EEJEJEEERSt5tupleIJDpT_EERSB_IJDpT1_EESt12_Index_tupleIJXspT0_EEESK_IJXspT2_EEE, symObjAddr: 0x7F24, symBinAddr: 0x10000C0A8, symSize: 0x54 }
  - { offsetInCU: 0x2F13F, offset: 0x2F13F, size: 0x8, addend: 0x0, symName: __ZNSt4pairIKNSt7__cxx1112basic_stringIcSt11char_traitsIcESaIcEEE9DataTypesEC1IJOS5_EJEEESt21piecewise_construct_tSt5tupleIJDpT_EESC_IJDpT0_EE, symObjAddr: 0x7EE8, symBinAddr: 0x10000C06C, symSize: 0x3C }
  - { offsetInCU: 0x2F182, offset: 0x2F182, size: 0x8, addend: 0x0, symName: __ZNSt11_Tuple_implILm0EJONSt7__cxx1112basic_stringIcSt11char_traitsIcESaIcEEEEEC2EOS7_, symObjAddr: 0x7EC0, symBinAddr: 0x10000C044, symSize: 0x28 }
  - { offsetInCU: 0x2F19E, offset: 0x2F19E, size: 0x8, addend: 0x0, symName: __ZSt9addressofINSt8__detail10_Hash_nodeISt4pairIKNSt7__cxx1112basic_stringIcSt11char_traitsIcESaIcEEE5TableELb1EEEEPT_RSD_, symObjAddr: 0x7EA4, symBinAddr: 0x10000C028, symSize: 0x1C }
  - { offsetInCU: 0x2F2A5, offset: 0x2F2A5, size: 0x8, addend: 0x0, symName: __ZNSt4pairIKNSt7__cxx1112basic_stringIcSt11char_traitsIcESaIcEEE5TableEC1IJRS6_EJEEESt21piecewise_construct_tSt5tupleIJDpT_EESC_IJDpT0_EE, symObjAddr: 0x7E68, symBinAddr: 0x10000BFEC, symSize: 0x3C }
  - { offsetInCU: 0x2F276, offset: 0x2F276, size: 0x8, addend: 0x0, symName: __ZNK9__gnu_cxx16__aligned_bufferISt4pairIKNSt7__cxx1112basic_stringIcSt11char_traitsIcESaIcEEE5TableEE7_M_addrEv, symObjAddr: 0x7E54, symBinAddr: 0x10000BFD8, symSize: 0x14 }
  - { offsetInCU: 0x2F326, offset: 0x2F326, size: 0x8, addend: 0x0, symName: __ZNSt15__new_allocatorISt13_Rb_tree_nodeISt4pairIKNSt7__cxx1112basic_stringIcSt11char_traitsIcESaIcEEE6RecordEEE8allocateEmPKv, symObjAddr: 0x7DC4, symBinAddr: 0x10000BF48, symSize: 0x90 }
  - { offsetInCU: 0x2F487, offset: 0x2F487, size: 0x8, addend: 0x0, symName: __ZNSt4pairIKNSt7__cxx1112basic_stringIcSt11char_traitsIcESaIcEEE9DataTypesEC1IJRS6_EJEEESt21piecewise_construct_tSt5tupleIJDpT_EESC_IJDpT0_EE, symObjAddr: 0x7D88, symBinAddr: 0x10000BF0C, symSize: 0x3C }
  - { offsetInCU: 0x2F4CB, offset: 0x2F4CB, size: 0x8, addend: 0x0, symName: __ZNSt11_Tuple_implILm0EJRKNSt7__cxx1112basic_stringIcSt11char_traitsIcESaIcEEEEEC2EOS8_, symObjAddr: 0x7D60, symBinAddr: 0x10000BEE4, symSize: 0x28 }
  - { offsetInCU: 0x2F4B1, offset: 0x2F4B1, size: 0x8, addend: 0x0, symName: __ZNKSt8__detail10_Select1stclIRKSt4pairIKNSt7__cxx1112basic_stringIcSt11char_traitsIcESaIcEEE9DataTypesEEEONS0_10__1st_typeIT_E4typeEOSF_, symObjAddr: 0x7D40, symBinAddr: 0x10000BEC4, symSize: 0x20 }
  - { offsetInCU: 0x2F50A, offset: 0x2F50A, size: 0x8, addend: 0x0, symName: __ZNKSt8__detail15_Hashtable_baseINSt7__cxx1112basic_stringIcSt11char_traitsIcESaIcEEESt4pairIKS6_9DataTypesENS_10_Select1stESt8equal_toIS6_ESt4hashIS6_ENS_18_Mod_range_hashingENS_20_Default_ranged_hashENS_17_Hashtable_traitsILb1ELb0ELb1EEEE5_M_eqEv, symObjAddr: 0x7D24, symBinAddr: 0x10000BEA8, symSize: 0x1C }
  - { offsetInCU: 0x2F530, offset: 0x2F530, size: 0x8, addend: 0x0, symName: __ZSt11__addressofINSt8__detail10_Hash_nodeISt4pairIKNSt7__cxx1112basic_stringIcSt11char_traitsIcESaIcEEE9DataTypesELb1EEEEPT_RSD_, symObjAddr: 0x7D10, symBinAddr: 0x10000BE94, symSize: 0x14 }
  - { offsetInCU: 0x2F562, offset: 0x2F562, size: 0x8, addend: 0x0, symName: __ZSt11__addressofINSt8__detail10_Hash_nodeISt4pairIKNSt7__cxx1112basic_stringIcSt11char_traitsIcESaIcEEESt3anyELb1EEEEPT_RSD_, symObjAddr: 0x7CFC, symBinAddr: 0x10000BE80, symSize: 0x14 }
  - { offsetInCU: 0x2F594, offset: 0x2F594, size: 0x8, addend: 0x0, symName: __ZSt11__addressofIPNSt8__detail15_Hash_node_baseEEPT_RS3_, symObjAddr: 0x7CE8, symBinAddr: 0x10000BE6C, symSize: 0x14 }
  - { offsetInCU: 0x2F695, offset: 0x2F695, size: 0x8, addend: 0x0, symName: __ZNSt5tupleIJONSt7__cxx1112basic_stringIcSt11char_traitsIcESaIcEEEEEC1EOS7_, symObjAddr: 0x7CC0, symBinAddr: 0x10000BE44, symSize: 0x28 }
  - { offsetInCU: 0x2F67C, offset: 0x2F67C, size: 0x8, addend: 0x0, symName: __ZNSt8_Rb_treeINSt7__cxx1112basic_stringIcSt11char_traitsIcESaIcEEESt4pairIKS5_6RecordESt10_Select1stIS9_ESt4lessIS5_ESaIS9_EE14_M_create_nodeIJRKS9_EEEPSt13_Rb_tree_nodeIS9_EDpOT_, symObjAddr: 0x7C80, symBinAddr: 0x10000BE04, symSize: 0x40 }
  - { offsetInCU: 0x2F6D2, offset: 0x2F6D2, size: 0x8, addend: 0x0, symName: __ZNSt8_Rb_treeINSt7__cxx1112basic_stringIcSt11char_traitsIcESaIcEEESt4pairIKS5_6RecordESt10_Select1stIS9_ESt4lessIS5_ESaIS9_EE17_M_construct_nodeIJRKS9_EEEvPSt13_Rb_tree_nodeIS9_EDpOT_, symObjAddr: 0x7B7C, symBinAddr: 0x10000BD00, symSize: 0x104 }
  - { offsetInCU: 0x2F78D, offset: 0x2F78D, size: 0x8, addend: 0x0, symName: __ZNSt8_Rb_treeINSt7__cxx1112basic_stringIcSt11char_traitsIcESaIcEEESt4pairIKS5_6RecordESt10_Select1stIS9_ESt4lessIS5_ESaIS9_EE20_Reuse_or_alloc_node10_M_extractEv, symObjAddr: 0x7A60, symBinAddr: 0x10000BBE4, symSize: 0x11C }
  - { offsetInCU: 0x2F7C8, offset: 0x2F7C8, size: 0x8, addend: 0x0, symName: __ZNSt8__detail16_Hashtable_allocISaINS_10_Hash_nodeISt4pairIKNSt7__cxx1112basic_stringIcSt11char_traitsIcESaIcEEE5TableELb1EEEEE19_M_allocate_bucketsEm, symObjAddr: 0x79B0, symBinAddr: 0x10000BB34, symSize: 0xB0 }
  - { offsetInCU: 0x2F8EB, offset: 0x2F8EB, size: 0x8, addend: 0x0, symName: __ZNSt19__ptr_traits_ptr_toIPNSt8__detail10_Hash_nodeISt4pairIKNSt7__cxx1112basic_stringIcSt11char_traitsIcESaIcEEE5TableELb1EEESC_Lb0EE10pointer_toERSC_, symObjAddr: 0x7994, symBinAddr: 0x10000BB18, symSize: 0x1C }
  - { offsetInCU: 0x2F944, offset: 0x2F944, size: 0x8, addend: 0x0, symName: __ZNSt15__new_allocatorINSt8__detail10_Hash_nodeISt4pairIKNSt7__cxx1112basic_stringIcSt11char_traitsIcESaIcEEE5TableELb1EEEE10deallocateEPSC_m, symObjAddr: 0x7950, symBinAddr: 0x10000BAD4, symSize: 0x44 }
  - { offsetInCU: 0x2F9E4, offset: 0x2F9E4, size: 0x8, addend: 0x0, symName: __ZNSt15__new_allocatorINSt8__detail10_Hash_nodeISt4pairIKNSt7__cxx1112basic_stringIcSt11char_traitsIcESaIcEEE5TableELb1EEEE8allocateEmPKv, symObjAddr: 0x78A8, symBinAddr: 0x10000BA2C, symSize: 0xA8 }
  - { offsetInCU: 0x2FA70, offset: 0x2FA70, size: 0x8, addend: 0x0, symName: __ZNSt8__detail21_Hashtable_ebo_helperILi0ESaINS_10_Hash_nodeISt4pairIKNSt7__cxx1112basic_stringIcSt11char_traitsIcESaIcEEE5TableELb1EEEELb1EE6_M_getEv, symObjAddr: 0x7894, symBinAddr: 0x10000BA18, symSize: 0x14 }
  - { offsetInCU: 0x2FA96, offset: 0x2FA96, size: 0x8, addend: 0x0, symName: __ZNSt8__detail15_Hashtable_baseINSt7__cxx1112basic_stringIcSt11char_traitsIcESaIcEEESt4pairIKS6_5TableENS_10_Select1stESt8equal_toIS6_ESt4hashIS6_ENS_18_Mod_range_hashingENS_20_Default_ranged_hashENS_17_Hashtable_traitsILb1ELb0ELb1EEEE9_S_equalsEmRKNS_21_Hash_node_code_cacheILb1EEE, symObjAddr: 0x7868, symBinAddr: 0x10000B9EC, symSize: 0x2C }
  - { offsetInCU: 0x2FAD5, offset: 0x2FAD5, size: 0x8, addend: 0x0, symName: __ZNK9__gnu_cxx16__aligned_bufferISt4pairIKNSt7__cxx1112basic_stringIcSt11char_traitsIcESaIcEEE5TableEE6_M_ptrEv, symObjAddr: 0x784C, symBinAddr: 0x10000B9D0, symSize: 0x1C }
  - { offsetInCU: 0x2FAFB, offset: 0x2FAFB, size: 0x8, addend: 0x0, symName: __ZSt19__relocate_object_aINSt7__cxx1112basic_stringIcSt11char_traitsIcESaIcEEES5_SaIS5_EEvPT_PT0_RT1_, symObjAddr: 0x777C, symBinAddr: 0x10000B900, symSize: 0xD0 }
  - { offsetInCU: 0x2FC52, offset: 0x2FC52, size: 0x8, addend: 0x0, symName: __ZNKSt8_Rb_treeINSt7__cxx1112basic_stringIcSt11char_traitsIcESaIcEEESt4pairIKS5_6RecordESt10_Select1stIS9_ESt4lessIS5_ESaIS9_EE11_Alloc_nodeclIRKS9_EEPSt13_Rb_tree_nodeIS9_EOT_, symObjAddr: 0x7740, symBinAddr: 0x10000B8C4, symSize: 0x3C }
  - { offsetInCU: 0x2FD78, offset: 0x2FD78, size: 0x8, addend: 0x0, symName: __ZNSt5tupleIJRKNSt7__cxx1112basic_stringIcSt11char_traitsIcESaIcEEEEEC1EOS8_, symObjAddr: 0x7718, symBinAddr: 0x10000B89C, symSize: 0x28 }
  - { offsetInCU: 0x2FD5E, offset: 0x2FD5E, size: 0x8, addend: 0x0, symName: __ZNKSt8__detail15_Hashtable_baseINSt7__cxx1112basic_stringIcSt11char_traitsIcESaIcEEESt4pairIKS6_9DataTypesENS_10_Select1stESt8equal_toIS6_ESt4hashIS6_ENS_18_Mod_range_hashingENS_20_Default_ranged_hashENS_17_Hashtable_traitsILb1ELb0ELb1EEEE13_M_key_equalsERS8_RKNS_16_Hash_node_valueISA_Lb1EEE, symObjAddr: 0x76AC, symBinAddr: 0x10000B830, symSize: 0x6C }
  - { offsetInCU: 0x2FDEE, offset: 0x2FDEE, size: 0x8, addend: 0x0, symName: __ZNSt8__detail15_Hashtable_baseINSt7__cxx1112basic_stringIcSt11char_traitsIcESaIcEEESt4pairIKS6_9DataTypesENS_10_Select1stESt8equal_toIS6_ESt4hashIS6_ENS_18_Mod_range_hashingENS_20_Default_ranged_hashENS_17_Hashtable_traitsILb1ELb0ELb1EEEE9_S_equalsEmRKNS_21_Hash_node_code_cacheILb1EEE, symObjAddr: 0x7680, symBinAddr: 0x10000B804, symSize: 0x2C }
  - { offsetInCU: 0x2FEDE, offset: 0x2FEDE, size: 0x8, addend: 0x0, symName: __ZNSt4pairIKNSt7__cxx1112basic_stringIcSt11char_traitsIcESaIcEEE9DataTypesEC1ERKS8_, symObjAddr: 0x7648, symBinAddr: 0x10000B7CC, symSize: 0x38 }
  - { offsetInCU: 0x2FEBD, offset: 0x2FEBD, size: 0x8, addend: 0x0, symName: __ZNSt15__new_allocatorINSt8__detail10_Hash_nodeISt4pairIKNSt7__cxx1112basic_stringIcSt11char_traitsIcESaIcEEE9DataTypesELb1EEEE8allocateEmPKv, symObjAddr: 0x75B0, symBinAddr: 0x10000B734, symSize: 0x98 }
  - { offsetInCU: 0x2FF49, offset: 0x2FF49, size: 0x8, addend: 0x0, symName: __ZNSt15__new_allocatorINSt8__detail10_Hash_nodeISt4pairIKNSt7__cxx1112basic_stringIcSt11char_traitsIcESaIcEEE9DataTypesELb1EEEE10deallocateEPSC_m, symObjAddr: 0x7574, symBinAddr: 0x10000B6F8, symSize: 0x3C }
  - { offsetInCU: 0x2FF8F, offset: 0x2FF8F, size: 0x8, addend: 0x0, symName: __ZSt9addressofINSt8__detail10_Hash_nodeISt4pairIKNSt7__cxx1112basic_stringIcSt11char_traitsIcESaIcEEE9DataTypesELb1EEEEPT_RSD_, symObjAddr: 0x7558, symBinAddr: 0x10000B6DC, symSize: 0x1C }
  - { offsetInCU: 0x2FFCA, offset: 0x2FFCA, size: 0x8, addend: 0x0, symName: __ZN9__gnu_cxx16__aligned_bufferISt4pairIKNSt7__cxx1112basic_stringIcSt11char_traitsIcESaIcEEE9DataTypesEE7_M_addrEv, symObjAddr: 0x7544, symBinAddr: 0x10000B6C8, symSize: 0x14 }
  - { offsetInCU: 0x2FFF3, offset: 0x2FFF3, size: 0x8, addend: 0x0, symName: __ZNSt15__new_allocatorISt13_Rb_tree_nodeISt4pairIKNSt7__cxx1112basic_stringIcSt11char_traitsIcESaIcEEE6RecordEEE10deallocateEPSB_m, symObjAddr: 0x7508, symBinAddr: 0x10000B68C, symSize: 0x3C }
  - { offsetInCU: 0x300DA, offset: 0x300DA, size: 0x8, addend: 0x0, symName: __ZNSt4pairIKNSt7__cxx1112basic_stringIcSt11char_traitsIcESaIcEEE6RecordED1Ev, symObjAddr: 0x74DC, symBinAddr: 0x10000B660, symSize: 0x2C }
  - { offsetInCU: 0x300F9, offset: 0x300F9, size: 0x8, addend: 0x0, symName: __ZNSt15__new_allocatorINSt8__detail10_Hash_nodeISt4pairIKNSt7__cxx1112basic_stringIcSt11char_traitsIcESaIcEEESt3anyELb1EEEE8allocateEmPKv, symObjAddr: 0x7460, symBinAddr: 0x10000B5E4, symSize: 0x7C }
  - { offsetInCU: 0x30185, offset: 0x30185, size: 0x8, addend: 0x0, symName: __ZNSt15__new_allocatorIPNSt8__detail15_Hash_node_baseEE8allocateEmPKv, symObjAddr: 0x73E4, symBinAddr: 0x10000B568, symSize: 0x7C }
  - { offsetInCU: 0x30211, offset: 0x30211, size: 0x8, addend: 0x0, symName: __ZNSt15__new_allocatorINSt8__detail10_Hash_nodeISt4pairIKNSt7__cxx1112basic_stringIcSt11char_traitsIcESaIcEEESt3anyELb1EEEE10deallocateEPSC_m, symObjAddr: 0x73B4, symBinAddr: 0x10000B538, symSize: 0x30 }
  - { offsetInCU: 0x30257, offset: 0x30257, size: 0x8, addend: 0x0, symName: __ZSt9addressofINSt8__detail10_Hash_nodeISt4pairIKNSt7__cxx1112basic_stringIcSt11char_traitsIcESaIcEEESt3anyELb1EEEEPT_RSD_, symObjAddr: 0x7398, symBinAddr: 0x10000B51C, symSize: 0x1C }
  - { offsetInCU: 0x3028D, offset: 0x3028D, size: 0x8, addend: 0x0, symName: __ZNSt15__new_allocatorIPNSt8__detail15_Hash_node_baseEE10deallocateEPS2_m, symObjAddr: 0x7368, symBinAddr: 0x10000B4EC, symSize: 0x30 }
  - { offsetInCU: 0x30333, offset: 0x30333, size: 0x8, addend: 0x0, symName: __ZNSt15__new_allocatorIPNSt8__detail15_Hash_node_baseEED2Ev, symObjAddr: 0x7354, symBinAddr: 0x10000B4D8, symSize: 0x14 }
  - { offsetInCU: 0x30333, offset: 0x30333, size: 0x8, addend: 0x0, symName: __ZSt9addressofIPNSt8__detail15_Hash_node_baseEEPT_RS3_, symObjAddr: 0x7338, symBinAddr: 0x10000B4BC, symSize: 0x1C }
  - { offsetInCU: 0x303E5, offset: 0x303E5, size: 0x8, addend: 0x0, symName: __ZNSt8_Rb_treeINSt7__cxx1112basic_stringIcSt11char_traitsIcESaIcEEESt4pairIKS5_6RecordESt10_Select1stIS9_ESt4lessIS5_ESaIS9_EE20_Reuse_or_alloc_nodeclIRKS9_EEPSt13_Rb_tree_nodeIS9_EOT_, symObjAddr: 0x72A8, symBinAddr: 0x10000B42C, symSize: 0x90 }
  - { offsetInCU: 0x3043D, offset: 0x3043D, size: 0x8, addend: 0x0, symName: __ZSt7forwardIRKSt4pairIKNSt7__cxx1112basic_stringIcSt11char_traitsIcESaIcEEE6RecordEEOT_RNSt16remove_referenceISC_E4typeE, symObjAddr: 0x7294, symBinAddr: 0x10000B418, symSize: 0x14 }
  - { offsetInCU: 0x30473, offset: 0x30473, size: 0x8, addend: 0x0, symName: __ZNKSt8__detail15_Hash_code_baseINSt7__cxx1112basic_stringIcSt11char_traitsIcESaIcEEESt4pairIKS6_5TableENS_10_Select1stESt4hashIS6_ENS_18_Mod_range_hashingENS_20_Default_ranged_hashELb1EE15_M_bucket_indexERKNS_16_Hash_node_valueISA_Lb1EEEm, symObjAddr: 0x7264, symBinAddr: 0x10000B3E8, symSize: 0x30 }
  - { offsetInCU: 0x304BF, offset: 0x304BF, size: 0x8, addend: 0x0, symName: __ZNSt10_HashtableINSt7__cxx1112basic_stringIcSt11char_traitsIcESaIcEEESt4pairIKS5_5TableESaIS9_ENSt8__detail10_Select1stESt8equal_toIS5_ESt4hashIS5_ENSB_18_Mod_range_hashingENSB_20_Default_ranged_hashENSB_20_Prime_rehash_policyENSB_17_Hashtable_traitsILb1ELb0ELb1EEEE19_M_allocate_bucketsEm, symObjAddr: 0x720C, symBinAddr: 0x10000B390, symSize: 0x58 }
  - { offsetInCU: 0x304FA, offset: 0x304FA, size: 0x8, addend: 0x0, symName: __ZNSt8__detail16_Hashtable_allocISaINS_10_Hash_nodeISt4pairIKNSt7__cxx1112basic_stringIcSt11char_traitsIcESaIcEEE5TableELb1EEEEE22_M_deallocate_node_ptrEPSC_, symObjAddr: 0x71B4, symBinAddr: 0x10000B338, symSize: 0x58 }
  - { offsetInCU: 0x3062F, offset: 0x3062F, size: 0x8, addend: 0x0, symName: __ZSt12__to_addressINSt8__detail10_Hash_nodeISt4pairIKNSt7__cxx1112basic_stringIcSt11char_traitsIcESaIcEEE5TableELb1EEEEPT_SE_, symObjAddr: 0x71A0, symBinAddr: 0x10000B324, symSize: 0x14 }
  - { offsetInCU: 0x30689, offset: 0x30689, size: 0x8, addend: 0x0, symName: __ZNSt8__detail16_Hashtable_allocISaINS_10_Hash_nodeISt4pairIKNSt7__cxx1112basic_stringIcSt11char_traitsIcESaIcEEE5TableELb1EEEEE17_M_node_allocatorEv, symObjAddr: 0x7184, symBinAddr: 0x10000B308, symSize: 0x1C }
  - { offsetInCU: 0x306B3, offset: 0x306B3, size: 0x8, addend: 0x0, symName: __ZNKSt10_HashtableINSt7__cxx1112basic_stringIcSt11char_traitsIcESaIcEEESt4pairIKS5_5TableESaIS9_ENSt8__detail10_Select1stESt8equal_toIS5_ESt4hashIS5_ENSB_18_Mod_range_hashingENSB_20_Default_ranged_hashENSB_20_Prime_rehash_policyENSB_17_Hashtable_traitsILb1ELb0ELb1EEEE15_M_bucket_indexERKNSB_16_Hash_node_valueIS9_Lb1EEE, symObjAddr: 0x7154, symBinAddr: 0x10000B2D8, symSize: 0x30 }
  - { offsetInCU: 0x306EE, offset: 0x306EE, size: 0x8, addend: 0x0, symName: __ZNKSt8__detail15_Hashtable_baseINSt7__cxx1112basic_stringIcSt11char_traitsIcESaIcEEESt4pairIKS6_5TableENS_10_Select1stESt8equal_toIS6_ESt4hashIS6_ENS_18_Mod_range_hashingENS_20_Default_ranged_hashENS_17_Hashtable_traitsILb1ELb0ELb1EEEE9_M_equalsERS8_mRKNS_16_Hash_node_valueISA_Lb1EEE, symObjAddr: 0x70EC, symBinAddr: 0x10000B270, symSize: 0x68 }
  - { offsetInCU: 0x3074E, offset: 0x3074E, size: 0x8, addend: 0x0, symName: __ZSt7forwardIRKSt4pairIKNSt7__cxx1112basic_stringIcSt11char_traitsIcESaIcEEE5TableEEOT_RNSt16remove_referenceISC_E4typeE, symObjAddr: 0x70D8, symBinAddr: 0x10000B25C, symSize: 0x14 }
  - { offsetInCU: 0x30796, offset: 0x30796, size: 0x8, addend: 0x0, symName: __ZSt14__relocate_a_1IPNSt7__cxx1112basic_stringIcSt11char_traitsIcESaIcEEES6_SaIS5_EET0_T_S9_S8_RT1_, symObjAddr: 0x7054, symBinAddr: 0x10000B1D8, symSize: 0x84 }
  - { offsetInCU: 0x3081F, offset: 0x3081F, size: 0x8, addend: 0x0, symName: __ZSt12__niter_baseIPNSt7__cxx1112basic_stringIcSt11char_traitsIcESaIcEEEET_S7_, symObjAddr: 0x7040, symBinAddr: 0x10000B1C4, symSize: 0x14 }
  - { offsetInCU: 0x30856, offset: 0x30856, size: 0x8, addend: 0x0, symName: __ZNSt15__new_allocatorINSt7__cxx1112basic_stringIcSt11char_traitsIcESaIcEEEE8allocateEmPKv, symObjAddr: 0x6FC4, symBinAddr: 0x10000B148, symSize: 0x7C }
  - { offsetInCU: 0x308E2, offset: 0x308E2, size: 0x8, addend: 0x0, symName: __ZNKSt12_Vector_baseINSt7__cxx1112basic_stringIcSt11char_traitsIcESaIcEEESaIS5_EE19_M_get_Tp_allocatorEv, symObjAddr: 0x6FB0, symBinAddr: 0x10000B134, symSize: 0x14 }
  - { offsetInCU: 0x30908, offset: 0x30908, size: 0x8, addend: 0x0, symName: __ZNSt6vectorINSt7__cxx1112basic_stringIcSt11char_traitsIcESaIcEEESaIS5_EE11_S_max_sizeERKS6_, symObjAddr: 0x6F5C, symBinAddr: 0x10000B0E0, symSize: 0x54 }
  - { offsetInCU: 0x309CA, offset: 0x309CA, size: 0x8, addend: 0x0, symName: __ZNSt8_Rb_treeINSt7__cxx1112basic_stringIcSt11char_traitsIcESaIcEEESt4pairIKS5_6RecordESt10_Select1stIS9_ESt4lessIS5_ESaIS9_EE13_M_clone_nodeILb0ENSF_11_Alloc_nodeEEEPSt13_Rb_tree_nodeIS9_ESK_RT0_, symObjAddr: 0x6F00, symBinAddr: 0x10000B084, symSize: 0x5C }
  - { offsetInCU: 0x30A5A, offset: 0x30A5A, size: 0x8, addend: 0x0, symName: __ZN9__gnu_cxx16__aligned_bufferISt4pairIKNSt7__cxx1112basic_stringIcSt11char_traitsIcESaIcEEE5TableEE7_M_addrEv, symObjAddr: 0x6EEC, symBinAddr: 0x10000B070, symSize: 0x14 }
  - { offsetInCU: 0x30A7F, offset: 0x30A7F, size: 0x8, addend: 0x0, symName: __ZSt8_DestroyINSt7__cxx1112basic_stringIcSt11char_traitsIcESaIcEEEEvPT_, symObjAddr: 0x6ECC, symBinAddr: 0x10000B050, symSize: 0x20 }
  - { offsetInCU: 0x30AB5, offset: 0x30AB5, size: 0x8, addend: 0x0, symName: __ZNSt8_Rb_treeINSt7__cxx1112basic_stringIcSt11char_traitsIcESaIcEEESt4pairIKS5_6RecordESt10_Select1stIS9_ESt4lessIS5_ESaIS9_EE11_M_get_nodeEv, symObjAddr: 0x6E90, symBinAddr: 0x10000B014, symSize: 0x3C }
  - { offsetInCU: 0x30B94, offset: 0x30B94, size: 0x8, addend: 0x0, symName: __ZNSt10_Head_baseILm0EONSt7__cxx1112basic_stringIcSt11char_traitsIcESaIcEEELb0EEC2IS5_EEOT_, symObjAddr: 0x6E60, symBinAddr: 0x10000AFE4, symSize: 0x30 }
  - { offsetInCU: 0x30B74, offset: 0x30B74, size: 0x8, addend: 0x0, symName: __ZNKSt8__detail21_Hashtable_ebo_helperILi0ESt8equal_toINSt7__cxx1112basic_stringIcSt11char_traitsIcESaIcEEEELb1EE7_M_cgetEv, symObjAddr: 0x6E4C, symBinAddr: 0x10000AFD0, symSize: 0x14 }
  - { offsetInCU: 0x30C51, offset: 0x30C51, size: 0x8, addend: 0x0, symName: __ZNSt8__detail19_Node_iterator_baseISt4pairIKNSt7__cxx1112basic_stringIcSt11char_traitsIcESaIcEEE9DataTypesELb1EEC2EPNS_10_Hash_nodeISA_Lb1EEE, symObjAddr: 0x6E28, symBinAddr: 0x10000AFAC, symSize: 0x24 }
  - { offsetInCU: 0x30C4D, offset: 0x30C4D, size: 0x8, addend: 0x0, symName: __ZNKSt8__detail15_Hashtable_baseINSt7__cxx1112basic_stringIcSt11char_traitsIcESaIcEEESt4pairIKS6_9DataTypesENS_10_Select1stESt8equal_toIS6_ESt4hashIS6_ENS_18_Mod_range_hashingENS_20_Default_ranged_hashENS_17_Hashtable_traitsILb1ELb0ELb1EEEE9_M_equalsERS8_mRKNS_16_Hash_node_valueISA_Lb1EEE, symObjAddr: 0x6DC0, symBinAddr: 0x10000AF44, symSize: 0x68 }
  - { offsetInCU: 0x30CAA, offset: 0x30CAA, size: 0x8, addend: 0x0, symName: __ZNKSt8__detail21_Hashtable_ebo_helperILi1ESt4hashINSt7__cxx1112basic_stringIcSt11char_traitsIcESaIcEEEELb1EE7_M_cgetEv, symObjAddr: 0x6DAC, symBinAddr: 0x10000AF30, symSize: 0x14 }
  - { offsetInCU: 0x30D96, offset: 0x30D96, size: 0x8, addend: 0x0, symName: __ZNSt8__detail13_NodePtrGuardINS_16_Hashtable_allocISaINS_10_Hash_nodeISt4pairIKNSt7__cxx1112basic_stringIcSt11char_traitsIcESaIcEEE9DataTypesELb1EEEEEEPSD_ED1Ev, symObjAddr: 0x6D68, symBinAddr: 0x10000AEEC, symSize: 0x44 }
  - { offsetInCU: 0x30D5E, offset: 0x30D5E, size: 0x8, addend: 0x0, symName: __ZSt12__to_addressINSt8__detail10_Hash_nodeISt4pairIKNSt7__cxx1112basic_stringIcSt11char_traitsIcESaIcEEE9DataTypesELb1EEEEPT_SE_, symObjAddr: 0x6D54, symBinAddr: 0x10000AED8, symSize: 0x14 }
  - { offsetInCU: 0x30DE6, offset: 0x30DE6, size: 0x8, addend: 0x0, symName: __ZNSt19__ptr_traits_ptr_toIPNSt8__detail10_Hash_nodeISt4pairIKNSt7__cxx1112basic_stringIcSt11char_traitsIcESaIcEEE9DataTypesELb1EEESC_Lb0EE10pointer_toERSC_, symObjAddr: 0x6D38, symBinAddr: 0x10000AEBC, symSize: 0x1C }
  - { offsetInCU: 0x30EB3, offset: 0x30EB3, size: 0x8, addend: 0x0, symName: __ZNSt4pairIKNSt7__cxx1112basic_stringIcSt11char_traitsIcESaIcEEE9DataTypesED1Ev, symObjAddr: 0x6D18, symBinAddr: 0x10000AE9C, symSize: 0x20 }
  - { offsetInCU: 0x30E8D, offset: 0x30E8D, size: 0x8, addend: 0x0, symName: __ZN9__gnu_cxx16__aligned_bufferISt4pairIKNSt7__cxx1112basic_stringIcSt11char_traitsIcESaIcEEE9DataTypesEE6_M_ptrEv, symObjAddr: 0x6CFC, symBinAddr: 0x10000AE80, symSize: 0x1C }
  - { offsetInCU: 0x30F95, offset: 0x30F95, size: 0x8, addend: 0x0, symName: __ZSt12__to_addressINSt8__detail10_Hash_nodeISt4pairIKNSt7__cxx1112basic_stringIcSt11char_traitsIcESaIcEEESt3anyELb1EEEEPT_SE_, symObjAddr: 0x6CE8, symBinAddr: 0x10000AE6C, symSize: 0x14 }
  - { offsetInCU: 0x30FEB, offset: 0x30FEB, size: 0x8, addend: 0x0, symName: __ZSt12__to_addressIPNSt8__detail15_Hash_node_baseEEPT_S4_, symObjAddr: 0x6CD4, symBinAddr: 0x10000AE58, symSize: 0x14 }
  - { offsetInCU: 0x31073, offset: 0x31073, size: 0x8, addend: 0x0, symName: __ZNSt19__ptr_traits_ptr_toIPNSt8__detail10_Hash_nodeISt4pairIKNSt7__cxx1112basic_stringIcSt11char_traitsIcESaIcEEESt3anyELb1EEESC_Lb0EE10pointer_toERSC_, symObjAddr: 0x6CB8, symBinAddr: 0x10000AE3C, symSize: 0x1C }
  - { offsetInCU: 0x3113E, offset: 0x3113E, size: 0x8, addend: 0x0, symName: __ZNSt19__ptr_traits_ptr_toIPPNSt8__detail15_Hash_node_baseES2_Lb0EE10pointer_toERS2_, symObjAddr: 0x6C9C, symBinAddr: 0x10000AE20, symSize: 0x1C }
  - { offsetInCU: 0x3116B, offset: 0x3116B, size: 0x8, addend: 0x0, symName: __ZNSt8__detail16_Hashtable_allocISaINS_10_Hash_nodeISt4pairIKNSt7__cxx1112basic_stringIcSt11char_traitsIcESaIcEEE9DataTypesELb1EEEEE16_M_allocate_nodeIJRKSt21piecewise_construct_tSt5tupleIJOS8_EESJ_IJEEEEEPSC_DpOT_, symObjAddr: 0x6AB0, symBinAddr: 0x10000AC34, symSize: 0x1EC }
  - { offsetInCU: 0x3131D, offset: 0x3131D, size: 0x8, addend: 0x0, symName: __ZNSt8__detail16_Hashtable_allocISaINS_10_Hash_nodeISt4pairIKNSt7__cxx1112basic_stringIcSt11char_traitsIcESaIcEEE5TableELb1EEEEE21_M_deallocate_bucketsEPPNS_15_Hash_node_baseEm, symObjAddr: 0x6A38, symBinAddr: 0x10000ABBC, symSize: 0x78 }
  - { offsetInCU: 0x3142D, offset: 0x3142D, size: 0x8, addend: 0x0, symName: __ZNKSt10_HashtableINSt7__cxx1112basic_stringIcSt11char_traitsIcESaIcEEESt4pairIKS5_5TableESaIS9_ENSt8__detail10_Select1stESt8equal_toIS5_ESt4hashIS5_ENSB_18_Mod_range_hashingENSB_20_Default_ranged_hashENSB_20_Prime_rehash_policyENSB_17_Hashtable_traitsILb1ELb0ELb1EEEE21_M_uses_single_bucketEPPNSB_15_Hash_node_baseE, symObjAddr: 0x69FC, symBinAddr: 0x10000AB80, symSize: 0x3C }
  - { offsetInCU: 0x3146F, offset: 0x3146F, size: 0x8, addend: 0x0, symName: __ZNSt8_Rb_treeINSt7__cxx1112basic_stringIcSt11char_traitsIcESaIcEEESt4pairIKS5_6RecordESt10_Select1stIS9_ESt4lessIS5_ESaIS9_EE13_M_clone_nodeILb0ENSF_20_Reuse_or_alloc_nodeEEEPSt13_Rb_tree_nodeIS9_ESK_RT0_, symObjAddr: 0x69A0, symBinAddr: 0x10000AB24, symSize: 0x5C }
  - { offsetInCU: 0x314DF, offset: 0x314DF, size: 0x8, addend: 0x0, symName: __ZNSt10_HashtableINSt7__cxx1112basic_stringIcSt11char_traitsIcESaIcEEESt4pairIKS5_5TableESaIS9_ENSt8__detail10_Select1stESt8equal_toIS5_ESt4hashIS5_ENSB_18_Mod_range_hashingENSB_20_Default_ranged_hashENSB_20_Prime_rehash_policyENSB_17_Hashtable_traitsILb1ELb0ELb1EEEE22_M_insert_bucket_beginEmPNSB_10_Hash_nodeIS9_Lb1EEE, symObjAddr: 0x6894, symBinAddr: 0x10000AA18, symSize: 0x10C }
  - { offsetInCU: 0x3152B, offset: 0x3152B, size: 0x8, addend: 0x0, symName: __ZNKSt8__detail15_Hash_code_baseINSt7__cxx1112basic_stringIcSt11char_traitsIcESaIcEEESt4pairIKS6_5TableENS_10_Select1stESt4hashIS6_ENS_18_Mod_range_hashingENS_20_Default_ranged_hashELb1EE13_M_store_codeERNS_21_Hash_node_code_cacheILb1EEEm, symObjAddr: 0x686C, symBinAddr: 0x10000A9F0, symSize: 0x28 }
  - { offsetInCU: 0x31577, offset: 0x31577, size: 0x8, addend: 0x0, symName: __ZNSt10_HashtableINSt7__cxx1112basic_stringIcSt11char_traitsIcESaIcEEESt4pairIKS5_5TableESaIS9_ENSt8__detail10_Select1stESt8equal_toIS5_ESt4hashIS5_ENSB_18_Mod_range_hashingENSB_20_Default_ranged_hashENSB_20_Prime_rehash_policyENSB_17_Hashtable_traitsILb1ELb0ELb1EEEE9_M_rehashEmSt17integral_constantIbLb1EE, symObjAddr: 0x6700, symBinAddr: 0x10000A884, symSize: 0x16C }
  - { offsetInCU: 0x31624, offset: 0x31624, size: 0x8, addend: 0x0, symName: __ZNSt8__detail16_Hashtable_allocISaINS_10_Hash_nodeISt4pairIKNSt7__cxx1112basic_stringIcSt11char_traitsIcESaIcEEE5TableELb1EEEEE18_M_deallocate_nodeEPSC_, symObjAddr: 0x6684, symBinAddr: 0x10000A808, symSize: 0x7C }
  - { offsetInCU: 0x316DD, offset: 0x316DD, size: 0x8, addend: 0x0, symName: __ZNSt8__detail16_Hashtable_allocISaINS_10_Hash_nodeISt4pairIKNSt7__cxx1112basic_stringIcSt11char_traitsIcESaIcEEE5TableELb1EEEEE16_M_allocate_nodeIJRKSt21piecewise_construct_tSt5tupleIJRS9_EESJ_IJEEEEEPSC_DpOT_, symObjAddr: 0x6498, symBinAddr: 0x10000A61C, symSize: 0x1EC }
  - { offsetInCU: 0x31912, offset: 0x31912, size: 0x8, addend: 0x0, symName: __ZNSt8__detail10_Hash_nodeISt4pairIKNSt7__cxx1112basic_stringIcSt11char_traitsIcESaIcEEE5TableELb1EEC1Ev, symObjAddr: 0x6478, symBinAddr: 0x10000A5FC, symSize: 0x20 }
  - { offsetInCU: 0x318D3, offset: 0x318D3, size: 0x8, addend: 0x0, symName: __ZNKSt10_HashtableINSt7__cxx1112basic_stringIcSt11char_traitsIcESaIcEEESt4pairIKS5_5TableESaIS9_ENSt8__detail10_Select1stESt8equal_toIS5_ESt4hashIS5_ENSB_18_Mod_range_hashingENSB_20_Default_ranged_hashENSB_20_Prime_rehash_policyENSB_17_Hashtable_traitsILb1ELb0ELb1EEEE19_M_find_before_nodeEmRS7_m, symObjAddr: 0x637C, symBinAddr: 0x10000A500, symSize: 0xFC }
  - { offsetInCU: 0x31965, offset: 0x31965, size: 0x8, addend: 0x0, symName: __ZNKSt8__detail15_Hash_code_baseINSt7__cxx1112basic_stringIcSt11char_traitsIcESaIcEEESt4pairIKS6_5TableENS_10_Select1stESt4hashIS6_ENS_18_Mod_range_hashingENS_20_Default_ranged_hashELb1EE15_M_bucket_indexEmm, symObjAddr: 0x6350, symBinAddr: 0x10000A4D4, symSize: 0x2C }
  - { offsetInCU: 0x319B1, offset: 0x319B1, size: 0x8, addend: 0x0, symName: __ZNKSt8__detail15_Hash_code_baseINSt7__cxx1112basic_stringIcSt11char_traitsIcESaIcEEESt4pairIKS6_5TableENS_10_Select1stESt4hashIS6_ENS_18_Mod_range_hashingENS_20_Default_ranged_hashELb1EE7_M_hashEv, symObjAddr: 0x6334, symBinAddr: 0x10000A4B8, symSize: 0x1C }
  - { offsetInCU: 0x319DB, offset: 0x319DB, size: 0x8, addend: 0x0, symName: __ZNKSt8__detail10_Select1stclIRKSt4pairIKNSt7__cxx1112basic_stringIcSt11char_traitsIcESaIcEEE5TableEEEONS0_10__1st_typeIT_E4typeEOSF_, symObjAddr: 0x6314, symBinAddr: 0x10000A498, symSize: 0x20 }
  - { offsetInCU: 0x31A34, offset: 0x31A34, size: 0x8, addend: 0x0, symName: __ZNKSt8__detail15_Hashtable_baseINSt7__cxx1112basic_stringIcSt11char_traitsIcESaIcEEESt4pairIKS6_5TableENS_10_Select1stESt8equal_toIS6_ESt4hashIS6_ENS_18_Mod_range_hashingENS_20_Default_ranged_hashENS_17_Hashtable_traitsILb1ELb0ELb1EEEE5_M_eqEv, symObjAddr: 0x62F8, symBinAddr: 0x10000A47C, symSize: 0x1C }
  - { offsetInCU: 0x31A5A, offset: 0x31A5A, size: 0x8, addend: 0x0, symName: __ZSt12__relocate_aIPNSt7__cxx1112basic_stringIcSt11char_traitsIcESaIcEEES6_SaIS5_EET0_T_S9_S8_RT1_, symObjAddr: 0x629C, symBinAddr: 0x10000A420, symSize: 0x5C }
  - { offsetInCU: 0x31AFA, offset: 0x31AFA, size: 0x8, addend: 0x0, symName: __ZNKSt6vectorINSt7__cxx1112basic_stringIcSt11char_traitsIcESaIcEEESaIS5_EE4sizeEv, symObjAddr: 0x6274, symBinAddr: 0x10000A3F8, symSize: 0x28 }
  - { offsetInCU: 0x31B24, offset: 0x31B24, size: 0x8, addend: 0x0, symName: __ZNKSt6vectorINSt7__cxx1112basic_stringIcSt11char_traitsIcESaIcEEESaIS5_EE8max_sizeEv, symObjAddr: 0x6254, symBinAddr: 0x10000A3D8, symSize: 0x20 }
  - { offsetInCU: 0x31B4E, offset: 0x31B4E, size: 0x8, addend: 0x0, symName: __ZNSt8_Rb_treeINSt7__cxx1112basic_stringIcSt11char_traitsIcESaIcEEESt4pairIKS5_6RecordESt10_Select1stIS9_ESt4lessIS5_ESaIS9_EE7_M_copyILb0ENSF_11_Alloc_nodeEEEPSt13_Rb_tree_nodeIS9_ESK_PSt18_Rb_tree_node_baseRT0_, symObjAddr: 0x610C, symBinAddr: 0x10000A290, symSize: 0x148 }
  - { offsetInCU: 0x31C47, offset: 0x31C47, size: 0x8, addend: 0x0, symName: __ZN9__gnu_cxx16__aligned_bufferISt4pairIKNSt7__cxx1112basic_stringIcSt11char_traitsIcESaIcEEE5TableEE6_M_ptrEv, symObjAddr: 0x60F0, symBinAddr: 0x10000A274, symSize: 0x1C }
  - { offsetInCU: 0x31D20, offset: 0x31D20, size: 0x8, addend: 0x0, symName: __ZNSt8__detail19_Node_iterator_baseISt4pairIKNSt7__cxx1112basic_stringIcSt11char_traitsIcESaIcEEE5TableELb1EEC2EPNS_10_Hash_nodeISA_Lb1EEE, symObjAddr: 0x60CC, symBinAddr: 0x10000A250, symSize: 0x24 }
  - { offsetInCU: 0x31CC4, offset: 0x31CC4, size: 0x8, addend: 0x0, symName: __ZNSt12_Destroy_auxILb0EE9__destroyIPNSt7__cxx1112basic_stringIcSt11char_traitsIcESaIcEEEEEvT_S9_, symObjAddr: 0x6080, symBinAddr: 0x10000A204, symSize: 0x4C }
  - { offsetInCU: 0x31D0A, offset: 0x31D0A, size: 0x8, addend: 0x0, symName: __ZNSt15__new_allocatorINSt7__cxx1112basic_stringIcSt11char_traitsIcESaIcEEEE10deallocateEPS5_m, symObjAddr: 0x6050, symBinAddr: 0x10000A1D4, symSize: 0x30 }
  - { offsetInCU: 0x31D59, offset: 0x31D59, size: 0x8, addend: 0x0, symName: __ZN9__gnu_cxx16__aligned_bufferISt4pairIKNSt7__cxx1112basic_stringIcSt11char_traitsIcESaIcEEESt3anyEE7_M_addrEv, symObjAddr: 0x603C, symBinAddr: 0x10000A1C0, symSize: 0x14 }
  - { offsetInCU: 0x31D87, offset: 0x31D87, size: 0x8, addend: 0x0, symName: __ZN9__gnu_cxx16__aligned_membufISt4pairIKNSt7__cxx1112basic_stringIcSt11char_traitsIcESaIcEEE6RecordEE7_M_addrEv, symObjAddr: 0x6028, symBinAddr: 0x10000A1AC, symSize: 0x14 }
  - { offsetInCU: 0x31E2B, offset: 0x31E2B, size: 0x8, addend: 0x0, symName: __ZNSt10_Head_baseILm0ERKNSt7__cxx1112basic_stringIcSt11char_traitsIcESaIcEEELb0EEC2ES7_, symObjAddr: 0x6004, symBinAddr: 0x10000A188, symSize: 0x24 }
  - { offsetInCU: 0x31E8E, offset: 0x31E8E, size: 0x8, addend: 0x0, symName: __ZNSt11_Tuple_implILm0EJONSt7__cxx1112basic_stringIcSt11char_traitsIcESaIcEEEEEC2IS5_EEOT_, symObjAddr: 0x5FC8, symBinAddr: 0x10000A14C, symSize: 0x3C }
  - { offsetInCU: 0x31E6F, offset: 0x31E6F, size: 0x8, addend: 0x0, symName: __ZNKSt8equal_toINSt7__cxx1112basic_stringIcSt11char_traitsIcESaIcEEEEclERKS5_S8_, symObjAddr: 0x5FA0, symBinAddr: 0x10000A124, symSize: 0x28 }
  - { offsetInCU: 0x31EB8, offset: 0x31EB8, size: 0x8, addend: 0x0, symName: __ZNSt8__detail22_Hashtable_hash_traitsISt4hashINSt7__cxx1112basic_stringIcSt11char_traitsIcESaIcEEEEE22__small_size_thresholdEv, symObjAddr: 0x5F98, symBinAddr: 0x10000A11C, symSize: 0x8 }
  - { offsetInCU: 0x31F85, offset: 0x31F85, size: 0x8, addend: 0x0, symName: __ZNSt8__detail14_Node_iteratorISt4pairIKNSt7__cxx1112basic_stringIcSt11char_traitsIcESaIcEEE9DataTypesELb0ELb1EEC1EPNS_10_Hash_nodeISA_Lb1EEE, symObjAddr: 0x5F70, symBinAddr: 0x10000A0F4, symSize: 0x28 }
  - { offsetInCU: 0x31F2A, offset: 0x31F2A, size: 0x8, addend: 0x0, symName: __ZNSt10_HashtableINSt7__cxx1112basic_stringIcSt11char_traitsIcESaIcEEESt4pairIKS5_9DataTypesESaIS9_ENSt8__detail10_Select1stESt8equal_toIS5_ESt4hashIS5_ENSB_18_Mod_range_hashingENSB_20_Default_ranged_hashENSB_20_Prime_rehash_policyENSB_17_Hashtable_traitsILb1ELb0ELb1EEEE22_M_insert_bucket_beginEmPNSB_10_Hash_nodeIS9_Lb1EEE, symObjAddr: 0x5E64, symBinAddr: 0x100009FE8, symSize: 0x10C }
  - { offsetInCU: 0x31F76, offset: 0x31F76, size: 0x8, addend: 0x0, symName: __ZNKSt8__detail15_Hash_code_baseINSt7__cxx1112basic_stringIcSt11char_traitsIcESaIcEEESt4pairIKS6_9DataTypesENS_10_Select1stESt4hashIS6_ENS_18_Mod_range_hashingENS_20_Default_ranged_hashELb1EE13_M_store_codeERNS_21_Hash_node_code_cacheILb1EEEm, symObjAddr: 0x5E3C, symBinAddr: 0x100009FC0, symSize: 0x28 }
  - { offsetInCU: 0x31FC2, offset: 0x31FC2, size: 0x8, addend: 0x0, symName: __ZNSt10_HashtableINSt7__cxx1112basic_stringIcSt11char_traitsIcESaIcEEESt4pairIKS5_9DataTypesESaIS9_ENSt8__detail10_Select1stESt8equal_toIS5_ESt4hashIS5_ENSB_18_Mod_range_hashingENSB_20_Default_ranged_hashENSB_20_Prime_rehash_policyENSB_17_Hashtable_traitsILb1ELb0ELb1EEEE9_M_rehashEmSt17integral_constantIbLb1EE, symObjAddr: 0x5CD0, symBinAddr: 0x100009E54, symSize: 0x16C }
  - { offsetInCU: 0x3206F, offset: 0x3206F, size: 0x8, addend: 0x0, symName: __ZNSt8__detail16_Hashtable_allocISaINS_10_Hash_nodeISt4pairIKNSt7__cxx1112basic_stringIcSt11char_traitsIcESaIcEEE9DataTypesELb1EEEEE16_M_allocate_nodeIJRKSt21piecewise_construct_tSt5tupleIJRS9_EESJ_IJEEEEEPSC_DpOT_, symObjAddr: 0x5AE4, symBinAddr: 0x100009C68, symSize: 0x1EC }
  - { offsetInCU: 0x32221, offset: 0x32221, size: 0x8, addend: 0x0, symName: __ZNKSt10_HashtableINSt7__cxx1112basic_stringIcSt11char_traitsIcESaIcEEESt4pairIKS5_9DataTypesESaIS9_ENSt8__detail10_Select1stESt8equal_toIS5_ESt4hashIS5_ENSB_18_Mod_range_hashingENSB_20_Default_ranged_hashENSB_20_Prime_rehash_policyENSB_17_Hashtable_traitsILb1ELb0ELb1EEEE19_M_find_before_nodeEmRS7_m, symObjAddr: 0x59E8, symBinAddr: 0x100009B6C, symSize: 0xFC }
  - { offsetInCU: 0x322B3, offset: 0x322B3, size: 0x8, addend: 0x0, symName: __ZNKSt8__detail15_Hash_code_baseINSt7__cxx1112basic_stringIcSt11char_traitsIcESaIcEEESt4pairIKS6_9DataTypesENS_10_Select1stESt4hashIS6_ENS_18_Mod_range_hashingENS_20_Default_ranged_hashELb1EE15_M_bucket_indexEmm, symObjAddr: 0x59BC, symBinAddr: 0x100009B40, symSize: 0x2C }
  - { offsetInCU: 0x322FF, offset: 0x322FF, size: 0x8, addend: 0x0, symName: __ZNKSt15__str_hash_baseIcSaIcENSt7__cxx1112basic_stringIcSt11char_traitsIcES0_EEEclERKS5_, symObjAddr: 0x5974, symBinAddr: 0x100009AF8, symSize: 0x48 }
  - { offsetInCU: 0x3233A, offset: 0x3233A, size: 0x8, addend: 0x0, symName: __ZNKSt8__detail15_Hash_code_baseINSt7__cxx1112basic_stringIcSt11char_traitsIcESaIcEEESt4pairIKS6_9DataTypesENS_10_Select1stESt4hashIS6_ENS_18_Mod_range_hashingENS_20_Default_ranged_hashELb1EE7_M_hashEv, symObjAddr: 0x5958, symBinAddr: 0x100009ADC, symSize: 0x1C }
  - { offsetInCU: 0x3236F, offset: 0x3236F, size: 0x8, addend: 0x0, symName: __ZNKSt8__detail17_ReuseOrAllocNodeISaINS_10_Hash_nodeISt4pairIKNSt7__cxx1112basic_stringIcSt11char_traitsIcESaIcEEE9DataTypesELb1EEEEEclIJRKSB_EEEPSC_DpOT_, symObjAddr: 0x5790, symBinAddr: 0x100009914, symSize: 0x1C8 }
  - { offsetInCU: 0x324EE, offset: 0x324EE, size: 0x8, addend: 0x0, symName: __ZNKSt8__detail15_Hash_code_baseINSt7__cxx1112basic_stringIcSt11char_traitsIcESaIcEEESt4pairIKS6_9DataTypesENS_10_Select1stESt4hashIS6_ENS_18_Mod_range_hashingENS_20_Default_ranged_hashELb1EE15_M_bucket_indexERKNS_16_Hash_node_valueISA_Lb1EEEm, symObjAddr: 0x5760, symBinAddr: 0x1000098E4, symSize: 0x30 }
  - { offsetInCU: 0x3253A, offset: 0x3253A, size: 0x8, addend: 0x0, symName: __ZNSt10_HashtableINSt7__cxx1112basic_stringIcSt11char_traitsIcESaIcEEESt4pairIKS5_9DataTypesESaIS9_ENSt8__detail10_Select1stESt8equal_toIS5_ESt4hashIS5_ENSB_18_Mod_range_hashingENSB_20_Default_ranged_hashENSB_20_Prime_rehash_policyENSB_17_Hashtable_traitsILb1ELb0ELb1EEEE16_M_update_bbeginEv, symObjAddr: 0x56F8, symBinAddr: 0x10000987C, symSize: 0x68 }
  - { offsetInCU: 0x32588, offset: 0x32588, size: 0x8, addend: 0x0, symName: __ZNSt8__detail16_Hashtable_allocISaINS_10_Hash_nodeISt4pairIKNSt7__cxx1112basic_stringIcSt11char_traitsIcESaIcEEE9DataTypesELb1EEEEE16_M_allocate_nodeIJRKSB_EEEPSC_DpOT_, symObjAddr: 0x5584, symBinAddr: 0x100009708, symSize: 0x174 }
  - { offsetInCU: 0x3277B, offset: 0x3277B, size: 0x8, addend: 0x0, symName: __ZNSt8__detail10_Hash_nodeISt4pairIKNSt7__cxx1112basic_stringIcSt11char_traitsIcESaIcEEE9DataTypesELb1EEC1Ev, symObjAddr: 0x5564, symBinAddr: 0x1000096E8, symSize: 0x20 }
  - { offsetInCU: 0x3273B, offset: 0x3273B, size: 0x8, addend: 0x0, symName: __ZSt7forwardIRKSt4pairIKNSt7__cxx1112basic_stringIcSt11char_traitsIcESaIcEEE9DataTypesEEOT_RNSt16remove_referenceISC_E4typeE, symObjAddr: 0x5550, symBinAddr: 0x1000096D4, symSize: 0x14 }
  - { offsetInCU: 0x32774, offset: 0x32774, size: 0x8, addend: 0x0, symName: __ZSt4moveIRSt4pairIKNSt7__cxx1112basic_stringIcSt11char_traitsIcESaIcEEE9DataTypesEEONSt16remove_referenceIT_E4typeEOSC_, symObjAddr: 0x553C, symBinAddr: 0x1000096C0, symSize: 0x14 }
  - { offsetInCU: 0x327AA, offset: 0x327AA, size: 0x8, addend: 0x0, symName: __ZNSt8__detail16_Hashtable_allocISaINS_10_Hash_nodeISt4pairIKNSt7__cxx1112basic_stringIcSt11char_traitsIcESaIcEEE9DataTypesELb1EEEEE19_M_allocate_bucketsEm, symObjAddr: 0x548C, symBinAddr: 0x100009610, symSize: 0xB0 }
  - { offsetInCU: 0x328D1, offset: 0x328D1, size: 0x8, addend: 0x0, symName: __ZNSt8__detail16_Hashtable_allocISaINS_10_Hash_nodeISt4pairIKNSt7__cxx1112basic_stringIcSt11char_traitsIcESaIcEEE9DataTypesELb1EEEEE22_M_deallocate_node_ptrEPSC_, symObjAddr: 0x5434, symBinAddr: 0x1000095B8, symSize: 0x58 }
  - { offsetInCU: 0x32996, offset: 0x32996, size: 0x8, addend: 0x0, symName: __ZNSt8_Rb_treeINSt7__cxx1112basic_stringIcSt11char_traitsIcESaIcEEESt4pairIKS5_6RecordESt10_Select1stIS9_ESt4lessIS5_ESaIS9_EE11_M_put_nodeEPSt13_Rb_tree_nodeIS9_E, symObjAddr: 0x53E8, symBinAddr: 0x10000956C, symSize: 0x4C }
  - { offsetInCU: 0x32A07, offset: 0x32A07, size: 0x8, addend: 0x0, symName: __ZNSt8_Rb_treeINSt7__cxx1112basic_stringIcSt11char_traitsIcESaIcEEESt4pairIKS5_6RecordESt10_Select1stIS9_ESt4lessIS5_ESaIS9_EE15_M_destroy_nodeEPSt13_Rb_tree_nodeIS9_E, symObjAddr: 0x5388, symBinAddr: 0x10000950C, symSize: 0x60 }
  - { offsetInCU: 0x32A9C, offset: 0x32A9C, size: 0x8, addend: 0x0, symName: __ZNSt8__detail16_Hashtable_allocISaINS_10_Hash_nodeISt4pairIKNSt7__cxx1112basic_stringIcSt11char_traitsIcESaIcEEE9DataTypesELb1EEEEE21_M_deallocate_bucketsEPPNS_15_Hash_node_baseEm, symObjAddr: 0x5310, symBinAddr: 0x100009494, symSize: 0x78 }
  - { offsetInCU: 0x32BAC, offset: 0x32BAC, size: 0x8, addend: 0x0, symName: __ZNKSt10_HashtableINSt7__cxx1112basic_stringIcSt11char_traitsIcESaIcEEESt4pairIKS5_9DataTypesESaIS9_ENSt8__detail10_Select1stESt8equal_toIS5_ESt4hashIS5_ENSB_18_Mod_range_hashingENSB_20_Default_ranged_hashENSB_20_Prime_rehash_policyENSB_17_Hashtable_traitsILb1ELb0ELb1EEEE21_M_uses_single_bucketEPPNSB_15_Hash_node_baseE, symObjAddr: 0x52D4, symBinAddr: 0x100009458, symSize: 0x3C }
  - { offsetInCU: 0x32C06, offset: 0x32C06, size: 0x8, addend: 0x0, symName: __ZSt11__addressofINSt8__detail20_Prime_rehash_policyEEPT_RS2_, symObjAddr: 0x52C0, symBinAddr: 0x100009444, symSize: 0x14 }
  - { offsetInCU: 0x32C3C, offset: 0x32C3C, size: 0x8, addend: 0x0, symName: __ZNKSt8__detail15_Hash_code_baseINSt7__cxx1112basic_stringIcSt11char_traitsIcESaIcEEESt4pairIKS6_St3anyENS_10_Select1stESt4hashIS6_ENS_18_Mod_range_hashingENS_20_Default_ranged_hashELb1EE15_M_bucket_indexERKNS_16_Hash_node_valueISA_Lb1EEEm, symObjAddr: 0x5290, symBinAddr: 0x100009414, symSize: 0x30 }
  - { offsetInCU: 0x32C88, offset: 0x32C88, size: 0x8, addend: 0x0, symName: __ZNSt10_HashtableINSt7__cxx1112basic_stringIcSt11char_traitsIcESaIcEEESt4pairIKS5_St3anyESaIS9_ENSt8__detail10_Select1stESt8equal_toIS5_ESt4hashIS5_ENSB_18_Mod_range_hashingENSB_20_Default_ranged_hashENSB_20_Prime_rehash_policyENSB_17_Hashtable_traitsILb1ELb0ELb1EEEE16_M_update_bbeginEv, symObjAddr: 0x5228, symBinAddr: 0x1000093AC, symSize: 0x68 }
  - { offsetInCU: 0x32CD6, offset: 0x32CD6, size: 0x8, addend: 0x0, symName: __ZNSt8__detail16_Hashtable_allocISaINS_10_Hash_nodeISt4pairIKNSt7__cxx1112basic_stringIcSt11char_traitsIcESaIcEEESt3anyELb1EEEEE16_M_allocate_nodeIJRKSB_EEEPSC_DpOT_, symObjAddr: 0x50B4, symBinAddr: 0x100009238, symSize: 0x174 }
  - { offsetInCU: 0x32EC5, offset: 0x32EC5, size: 0x8, addend: 0x0, symName: __ZNSt8__detail10_Hash_nodeISt4pairIKNSt7__cxx1112basic_stringIcSt11char_traitsIcESaIcEEESt3anyELb1EEC1Ev, symObjAddr: 0x5094, symBinAddr: 0x100009218, symSize: 0x20 }
  - { offsetInCU: 0x32E89, offset: 0x32E89, size: 0x8, addend: 0x0, symName: __ZSt7forwardIRKSt4pairIKNSt7__cxx1112basic_stringIcSt11char_traitsIcESaIcEEESt3anyEEOT_RNSt16remove_referenceISC_E4typeE, symObjAddr: 0x5080, symBinAddr: 0x100009204, symSize: 0x14 }
  - { offsetInCU: 0x32EC2, offset: 0x32EC2, size: 0x8, addend: 0x0, symName: __ZSt4moveIRSt4pairIKNSt7__cxx1112basic_stringIcSt11char_traitsIcESaIcEEESt3anyEEONSt16remove_referenceIT_E4typeEOSC_, symObjAddr: 0x506C, symBinAddr: 0x1000091F0, symSize: 0x14 }
  - { offsetInCU: 0x32EF8, offset: 0x32EF8, size: 0x8, addend: 0x0, symName: __ZNSt8__detail16_Hashtable_allocISaINS_10_Hash_nodeISt4pairIKNSt7__cxx1112basic_stringIcSt11char_traitsIcESaIcEEESt3anyELb1EEEEE19_M_allocate_bucketsEm, symObjAddr: 0x4FBC, symBinAddr: 0x100009140, symSize: 0xB0 }
  - { offsetInCU: 0x3301F, offset: 0x3301F, size: 0x8, addend: 0x0, symName: __ZNSt8__detail16_Hashtable_allocISaINS_10_Hash_nodeISt4pairIKNSt7__cxx1112basic_stringIcSt11char_traitsIcESaIcEEESt3anyELb1EEEEE22_M_deallocate_node_ptrEPSC_, symObjAddr: 0x4F64, symBinAddr: 0x1000090E8, symSize: 0x58 }
  - { offsetInCU: 0x330CE, offset: 0x330CE, size: 0x8, addend: 0x0, symName: __ZNSt8__detail16_Hashtable_allocISaINS_10_Hash_nodeISt4pairIKNSt7__cxx1112basic_stringIcSt11char_traitsIcESaIcEEESt3anyELb1EEEEE21_M_deallocate_bucketsEPPNS_15_Hash_node_baseEm, symObjAddr: 0x4EEC, symBinAddr: 0x100009070, symSize: 0x78 }
  - { offsetInCU: 0x331DE, offset: 0x331DE, size: 0x8, addend: 0x0, symName: __ZNKSt10_HashtableINSt7__cxx1112basic_stringIcSt11char_traitsIcESaIcEEESt4pairIKS5_St3anyESaIS9_ENSt8__detail10_Select1stESt8equal_toIS5_ESt4hashIS5_ENSB_18_Mod_range_hashingENSB_20_Default_ranged_hashENSB_20_Prime_rehash_policyENSB_17_Hashtable_traitsILb1ELb0ELb1EEEE21_M_uses_single_bucketEPPNSB_15_Hash_node_baseE, symObjAddr: 0x4EB0, symBinAddr: 0x100009034, symSize: 0x3C }
  - { offsetInCU: 0x3342C, offset: 0x3342C, size: 0x8, addend: 0x0, symName: __ZNSt10_HashtableINSt7__cxx1112basic_stringIcSt11char_traitsIcESaIcEEESt4pairIKS5_9DataTypesESaIS9_ENSt8__detail10_Select1stESt8equal_toIS5_ESt4hashIS5_ENSB_18_Mod_range_hashingENSB_20_Default_ranged_hashENSB_20_Prime_rehash_policyENSB_17_Hashtable_traitsILb1ELb0ELb1EEEE12_Scoped_nodeC1IJRKSt21piecewise_construct_tSt5tupleIJOS5_EESS_IJEEEEEPNSB_16_Hashtable_allocISaINSB_10_Hash_nodeIS9_Lb1EEEEEEDpOT_, symObjAddr: 0x4E28, symBinAddr: 0x100008FAC, symSize: 0x88 }
  - { offsetInCU: 0x33302, offset: 0x33302, size: 0x8, addend: 0x0, symName: __ZNSt10_HashtableINSt7__cxx1112basic_stringIcSt11char_traitsIcESaIcEEESt4pairIKS5_5TableESaIS9_ENSt8__detail10_Select1stESt8equal_toIS5_ESt4hashIS5_ENSB_18_Mod_range_hashingENSB_20_Default_ranged_hashENSB_20_Prime_rehash_policyENSB_17_Hashtable_traitsILb1ELb0ELb1EEEE21_M_deallocate_bucketsEPPNSB_15_Hash_node_baseEm, symObjAddr: 0x4DDC, symBinAddr: 0x100008F60, symSize: 0x4C }
  - { offsetInCU: 0x3334E, offset: 0x3334E, size: 0x8, addend: 0x0, symName: __ZNSt8__detail16_Hashtable_allocISaINS_10_Hash_nodeISt4pairIKNSt7__cxx1112basic_stringIcSt11char_traitsIcESaIcEEE5TableELb1EEEEE19_M_deallocate_nodesEPSC_, symObjAddr: 0x4D8C, symBinAddr: 0x100008F10, symSize: 0x50 }
  - { offsetInCU: 0x333BF, offset: 0x333BF, size: 0x8, addend: 0x0, symName: __ZNSt8_Rb_treeINSt7__cxx1112basic_stringIcSt11char_traitsIcESaIcEEESt4pairIKS5_6RecordESt10_Select1stIS9_ESt4lessIS5_ESaIS9_EE10_S_maximumEPSt18_Rb_tree_node_base, symObjAddr: 0x4D70, symBinAddr: 0x100008EF4, symSize: 0x1C }
  - { offsetInCU: 0x333E9, offset: 0x333E9, size: 0x8, addend: 0x0, symName: __ZNSt8_Rb_treeINSt7__cxx1112basic_stringIcSt11char_traitsIcESaIcEEESt4pairIKS5_6RecordESt10_Select1stIS9_ESt4lessIS5_ESaIS9_EE10_S_minimumEPSt18_Rb_tree_node_base, symObjAddr: 0x4D54, symBinAddr: 0x100008ED8, symSize: 0x1C }
  - { offsetInCU: 0x33417, offset: 0x33417, size: 0x8, addend: 0x0, symName: __ZNSt8_Rb_treeINSt7__cxx1112basic_stringIcSt11char_traitsIcESaIcEEESt4pairIKS5_6RecordESt10_Select1stIS9_ESt4lessIS5_ESaIS9_EE11_M_leftmostEv, symObjAddr: 0x4D3C, symBinAddr: 0x100008EC0, symSize: 0x18 }
  - { offsetInCU: 0x33441, offset: 0x33441, size: 0x8, addend: 0x0, symName: __ZNSt8_Rb_treeINSt7__cxx1112basic_stringIcSt11char_traitsIcESaIcEEESt4pairIKS5_6RecordESt10_Select1stIS9_ESt4lessIS5_ESaIS9_EE7_M_copyILb0ENSF_20_Reuse_or_alloc_nodeEEEPSt13_Rb_tree_nodeIS9_ESK_PSt18_Rb_tree_node_baseRT0_, symObjAddr: 0x4BF4, symBinAddr: 0x100008D78, symSize: 0x148 }
  - { offsetInCU: 0x334E6, offset: 0x334E6, size: 0x8, addend: 0x0, symName: __ZNSt8_Rb_treeINSt7__cxx1112basic_stringIcSt11char_traitsIcESaIcEEESt4pairIKS5_6RecordESt10_Select1stIS9_ESt4lessIS5_ESaIS9_EE12_M_rightmostEv, symObjAddr: 0x4BDC, symBinAddr: 0x100008D60, symSize: 0x18 }
  - { offsetInCU: 0x33510, offset: 0x33510, size: 0x8, addend: 0x0, symName: __ZNKSt8__detail14_Node_iteratorISt4pairIKNSt7__cxx1112basic_stringIcSt11char_traitsIcESaIcEEE5TableELb0ELb1EEptEv, symObjAddr: 0x4BAC, symBinAddr: 0x100008D30, symSize: 0x30 }
  - { offsetInCU: 0x3355E, offset: 0x3355E, size: 0x8, addend: 0x0, symName: __ZNSt10_HashtableINSt7__cxx1112basic_stringIcSt11char_traitsIcESaIcEEESt4pairIKS5_5TableESaIS9_ENSt8__detail10_Select1stESt8equal_toIS5_ESt4hashIS5_ENSB_18_Mod_range_hashingENSB_20_Default_ranged_hashENSB_20_Prime_rehash_policyENSB_17_Hashtable_traitsILb1ELb0ELb1EEEE21_M_insert_unique_nodeEmmPNSB_10_Hash_nodeIS9_Lb1EEEm, symObjAddr: 0x4A9C, symBinAddr: 0x100008C20, symSize: 0x110 }
  - { offsetInCU: 0x3372F, offset: 0x3372F, size: 0x8, addend: 0x0, symName: __ZNSt10_HashtableINSt7__cxx1112basic_stringIcSt11char_traitsIcESaIcEEESt4pairIKS5_5TableESaIS9_ENSt8__detail10_Select1stESt8equal_toIS5_ESt4hashIS5_ENSB_18_Mod_range_hashingENSB_20_Default_ranged_hashENSB_20_Prime_rehash_policyENSB_17_Hashtable_traitsILb1ELb0ELb1EEEE12_Scoped_nodeD1Ev, symObjAddr: 0x4A58, symBinAddr: 0x100008BDC, symSize: 0x44 }
  - { offsetInCU: 0x3381A, offset: 0x3381A, size: 0x8, addend: 0x0, symName: __ZNSt10_HashtableINSt7__cxx1112basic_stringIcSt11char_traitsIcESaIcEEESt4pairIKS5_5TableESaIS9_ENSt8__detail10_Select1stESt8equal_toIS5_ESt4hashIS5_ENSB_18_Mod_range_hashingENSB_20_Default_ranged_hashENSB_20_Prime_rehash_policyENSB_17_Hashtable_traitsILb1ELb0ELb1EEEE12_Scoped_nodeC1IJRKSt21piecewise_construct_tSt5tupleIJRS7_EESS_IJEEEEEPNSB_16_Hashtable_allocISaINSB_10_Hash_nodeIS9_Lb1EEEEEEDpOT_, symObjAddr: 0x49D0, symBinAddr: 0x100008B54, symSize: 0x88 }
  - { offsetInCU: 0x336F4, offset: 0x336F4, size: 0x8, addend: 0x0, symName: __ZNKSt10_HashtableINSt7__cxx1112basic_stringIcSt11char_traitsIcESaIcEEESt4pairIKS5_5TableESaIS9_ENSt8__detail10_Select1stESt8equal_toIS5_ESt4hashIS5_ENSB_18_Mod_range_hashingENSB_20_Default_ranged_hashENSB_20_Prime_rehash_policyENSB_17_Hashtable_traitsILb1ELb0ELb1EEEE12_M_find_nodeEmRS7_m, symObjAddr: 0x497C, symBinAddr: 0x100008B00, symSize: 0x54 }
  - { offsetInCU: 0x33762, offset: 0x33762, size: 0x8, addend: 0x0, symName: __ZNKSt10_HashtableINSt7__cxx1112basic_stringIcSt11char_traitsIcESaIcEEESt4pairIKS5_5TableESaIS9_ENSt8__detail10_Select1stESt8equal_toIS5_ESt4hashIS5_ENSB_18_Mod_range_hashingENSB_20_Default_ranged_hashENSB_20_Prime_rehash_policyENSB_17_Hashtable_traitsILb1ELb0ELb1EEEE15_M_bucket_indexEm, symObjAddr: 0x494C, symBinAddr: 0x100008AD0, symSize: 0x30 }
  - { offsetInCU: 0x3379D, offset: 0x3379D, size: 0x8, addend: 0x0, symName: __ZNKSt8__detail15_Hash_code_baseINSt7__cxx1112basic_stringIcSt11char_traitsIcESaIcEEESt4pairIKS6_5TableENS_10_Select1stESt4hashIS6_ENS_18_Mod_range_hashingENS_20_Default_ranged_hashELb1EE12_M_hash_codeERS8_, symObjAddr: 0x4924, symBinAddr: 0x100008AA8, symSize: 0x28 }
  - { offsetInCU: 0x337D8, offset: 0x337D8, size: 0x8, addend: 0x0, symName: __ZNKSt8__detail15_Hashtable_baseINSt7__cxx1112basic_stringIcSt11char_traitsIcESaIcEEESt4pairIKS6_5TableENS_10_Select1stESt8equal_toIS6_ESt4hashIS6_ENS_18_Mod_range_hashingENS_20_Default_ranged_hashENS_17_Hashtable_traitsILb1ELb0ELb1EEEE13_M_key_equalsERS8_RKNS_16_Hash_node_valueISA_Lb1EEE, symObjAddr: 0x48B8, symBinAddr: 0x100008A3C, symSize: 0x6C }
  - { offsetInCU: 0x33869, offset: 0x33869, size: 0x8, addend: 0x0, symName: __ZNSt10_HashtableINSt7__cxx1112basic_stringIcSt11char_traitsIcESaIcEEESt4pairIKS5_5TableESaIS9_ENSt8__detail10_Select1stESt8equal_toIS5_ESt4hashIS5_ENSB_18_Mod_range_hashingENSB_20_Default_ranged_hashENSB_20_Prime_rehash_policyENSB_17_Hashtable_traitsILb1ELb0ELb1EEEE22__small_size_thresholdEv, symObjAddr: 0x48A4, symBinAddr: 0x100008A28, symSize: 0x14 }
  - { offsetInCU: 0x33884, offset: 0x33884, size: 0x8, addend: 0x0, symName: __ZNKSt10_HashtableINSt7__cxx1112basic_stringIcSt11char_traitsIcESaIcEEESt4pairIKS5_5TableESaIS9_ENSt8__detail10_Select1stESt8equal_toIS5_ESt4hashIS5_ENSB_18_Mod_range_hashingENSB_20_Default_ranged_hashENSB_20_Prime_rehash_policyENSB_17_Hashtable_traitsILb1ELb0ELb1EEEE4sizeEv, symObjAddr: 0x488C, symBinAddr: 0x100008A10, symSize: 0x18 }
  - { offsetInCU: 0x338AA, offset: 0x338AA, size: 0x8, addend: 0x0, symName: __ZNSt6vectorINSt7__cxx1112basic_stringIcSt11char_traitsIcESaIcEEESaIS5_EE11_S_relocateEPS5_S8_S8_RS6_, symObjAddr: 0x4858, symBinAddr: 0x1000089DC, symSize: 0x34 }
  - { offsetInCU: 0x33907, offset: 0x33907, size: 0x8, addend: 0x0, symName: __ZSt12__to_addressINSt7__cxx1112basic_stringIcSt11char_traitsIcESaIcEEEEPT_S7_, symObjAddr: 0x4844, symBinAddr: 0x1000089C8, symSize: 0x14 }
  - { offsetInCU: 0x3393D, offset: 0x3393D, size: 0x8, addend: 0x0, symName: __ZNSt12_Vector_baseINSt7__cxx1112basic_stringIcSt11char_traitsIcESaIcEEESaIS5_EE11_M_allocateEm, symObjAddr: 0x47F4, symBinAddr: 0x100008978, symSize: 0x50 }
  - { offsetInCU: 0x339A8, offset: 0x339A8, size: 0x8, addend: 0x0, symName: __ZN9__gnu_cxxmiIPNSt7__cxx1112basic_stringIcSt11char_traitsIcESaIcEEESt6vectorIS6_SaIS6_EEEENS_17__normal_iteratorIT_T0_E15difference_typeERKSE_SH_, symObjAddr: 0x47B4, symBinAddr: 0x100008938, symSize: 0x40 }
  - { offsetInCU: 0x339F9, offset: 0x339F9, size: 0x8, addend: 0x0, symName: __ZNKSt6vectorINSt7__cxx1112basic_stringIcSt11char_traitsIcESaIcEEESaIS5_EE12_M_check_lenEmPKc, symObjAddr: 0x46E4, symBinAddr: 0x100008868, symSize: 0xD0 }
  - { offsetInCU: 0x33A9B, offset: 0x33A9B, size: 0x8, addend: 0x0, symName: __ZSt7forwardIRKNSt7__cxx1112basic_stringIcSt11char_traitsIcESaIcEEEEOT_RNSt16remove_referenceIS8_E4typeE, symObjAddr: 0x46D0, symBinAddr: 0x100008854, symSize: 0x14 }
  - { offsetInCU: 0x33AD1, offset: 0x33AD1, size: 0x8, addend: 0x0, symName: __ZNSt8_Rb_treeINSt7__cxx1112basic_stringIcSt11char_traitsIcESaIcEEESt4pairIKS5_6RecordESt10_Select1stIS9_ESt4lessIS5_ESaIS9_EE7_M_copyILb0ENSF_11_Alloc_nodeEEEPSt13_Rb_tree_nodeIS9_ERKSF_RT0_, symObjAddr: 0x463C, symBinAddr: 0x1000087C0, symSize: 0x94 }
  - { offsetInCU: 0x33BF8, offset: 0x33BF8, size: 0x8, addend: 0x0, symName: __ZNSt8_Rb_treeINSt7__cxx1112basic_stringIcSt11char_traitsIcESaIcEEESt4pairIKS5_6RecordESt10_Select1stIS9_ESt4lessIS5_ESaIS9_EE11_Alloc_nodeC1ERSF_, symObjAddr: 0x4618, symBinAddr: 0x10000879C, symSize: 0x24 }
  - { offsetInCU: 0x33C1E, offset: 0x33C1E, size: 0x8, addend: 0x0, symName: __ZNSt20_Rb_tree_key_compareISt4lessINSt7__cxx1112basic_stringIcSt11char_traitsIcESaIcEEEEEC2ERKS7_, symObjAddr: 0x4600, symBinAddr: 0x100008784, symSize: 0x18 }
  - { offsetInCU: 0x33CF7, offset: 0x33CF7, size: 0x8, addend: 0x0, symName: __ZNSt8__detail21_Hashtable_ebo_helperILi0ESaINS_10_Hash_nodeISt4pairIKNSt7__cxx1112basic_stringIcSt11char_traitsIcESaIcEEE9DataTypesELb1EEEELb1EEC2ISD_EEOT_, symObjAddr: 0x45B4, symBinAddr: 0x100008738, symSize: 0x4C }
  - { offsetInCU: 0x33CF2, offset: 0x33CF2, size: 0x8, addend: 0x0, symName: __ZSt7forwardISaINSt8__detail10_Hash_nodeISt4pairIKNSt7__cxx1112basic_stringIcSt11char_traitsIcESaIcEEE9DataTypesELb1EEEEEOT_RNSt16remove_referenceISE_E4typeE, symObjAddr: 0x45A0, symBinAddr: 0x100008724, symSize: 0x14 }
  - { offsetInCU: 0x33D54, offset: 0x33D54, size: 0x8, addend: 0x0, symName: __ZNKSt8__detail10_Hash_nodeISt4pairIKNSt7__cxx1112basic_stringIcSt11char_traitsIcESaIcEEE5TableELb1EE7_M_nextEv, symObjAddr: 0x4588, symBinAddr: 0x10000870C, symSize: 0x18 }
  - { offsetInCU: 0x33E2C, offset: 0x33E2C, size: 0x8, addend: 0x0, symName: __ZNSt8__detail14_Node_iteratorISt4pairIKNSt7__cxx1112basic_stringIcSt11char_traitsIcESaIcEEE5TableELb0ELb1EEC1EPNS_10_Hash_nodeISA_Lb1EEE, symObjAddr: 0x4560, symBinAddr: 0x1000086E4, symSize: 0x28 }
  - { offsetInCU: 0x33DD5, offset: 0x33DD5, size: 0x8, addend: 0x0, symName: __ZNKSt10_HashtableINSt7__cxx1112basic_stringIcSt11char_traitsIcESaIcEEESt4pairIKS5_5TableESaIS9_ENSt8__detail10_Select1stESt8equal_toIS5_ESt4hashIS5_ENSB_18_Mod_range_hashingENSB_20_Default_ranged_hashENSB_20_Prime_rehash_policyENSB_17_Hashtable_traitsILb1ELb0ELb1EEEE8_M_beginEv, symObjAddr: 0x4548, symBinAddr: 0x1000086CC, symSize: 0x18 }
  - { offsetInCU: 0x33DFB, offset: 0x33DFB, size: 0x8, addend: 0x0, symName: __ZSt8_DestroyIPNSt7__cxx1112basic_stringIcSt11char_traitsIcESaIcEEEEvT_S7_, symObjAddr: 0x4520, symBinAddr: 0x1000086A4, symSize: 0x28 }
  - { offsetInCU: 0x33E89, offset: 0x33E89, size: 0x8, addend: 0x0, symName: __ZN9__gnu_cxx16__aligned_bufferISt4pairIKNSt7__cxx1112basic_stringIcSt11char_traitsIcESaIcEEESt3anyEE6_M_ptrEv, symObjAddr: 0x4504, symBinAddr: 0x100008688, symSize: 0x1C }
  - { offsetInCU: 0x33EB3, offset: 0x33EB3, size: 0x8, addend: 0x0, symName: __ZN9__gnu_cxx16__aligned_membufISt4pairIKNSt7__cxx1112basic_stringIcSt11char_traitsIcESaIcEEE6RecordEE6_M_ptrEv, symObjAddr: 0x44E8, symBinAddr: 0x10000866C, symSize: 0x1C }
  - { offsetInCU: 0x33EE0, offset: 0x33EE0, size: 0x8, addend: 0x0, symName: __ZSt7forwardISt5tupleIJRKNSt7__cxx1112basic_stringIcSt11char_traitsIcESaIcEEEEEEOT_RNSt16remove_referenceISA_E4typeE, symObjAddr: 0x44D4, symBinAddr: 0x100008658, symSize: 0x14 }
  - { offsetInCU: 0x33F91, offset: 0x33F91, size: 0x8, addend: 0x0, symName: __ZNSt11_Tuple_implILm0EJRKNSt7__cxx1112basic_stringIcSt11char_traitsIcESaIcEEEEEC2ES7_, symObjAddr: 0x44AC, symBinAddr: 0x100008630, symSize: 0x28 }
  - { offsetInCU: 0x33F70, offset: 0x33F70, size: 0x8, addend: 0x0, symName: __ZSt7forwardISt5tupleIJEEEOT_RNSt16remove_referenceIS2_E4typeE, symObjAddr: 0x4498, symBinAddr: 0x10000861C, symSize: 0x14 }
  - { offsetInCU: 0x33FA9, offset: 0x33FA9, size: 0x8, addend: 0x0, symName: __ZSt7forwardISt5tupleIJONSt7__cxx1112basic_stringIcSt11char_traitsIcESaIcEEEEEEOT_RNSt16remove_referenceIS9_E4typeE, symObjAddr: 0x4484, symBinAddr: 0x100008608, symSize: 0x14 }
  - { offsetInCU: 0x33FE2, offset: 0x33FE2, size: 0x8, addend: 0x0, symName: __ZSt7forwardIRKSt21piecewise_construct_tEOT_RNSt16remove_referenceIS3_E4typeE, symObjAddr: 0x4470, symBinAddr: 0x1000085F4, symSize: 0x14 }
  - { offsetInCU: 0x340AB, offset: 0x340AB, size: 0x8, addend: 0x0, symName: __ZNSt5tupleIJONSt7__cxx1112basic_stringIcSt11char_traitsIcESaIcEEEEEC1IJS5_ELb1ELb1EEEDpOT_, symObjAddr: 0x4434, symBinAddr: 0x1000085B8, symSize: 0x3C }
  - { offsetInCU: 0x340A1, offset: 0x340A1, size: 0x8, addend: 0x0, symName: __ZSt7forwardINSt7__cxx1112basic_stringIcSt11char_traitsIcESaIcEEEEOT_RNSt16remove_referenceIS6_E4typeE, symObjAddr: 0x4420, symBinAddr: 0x1000085A4, symSize: 0x14 }
  - { offsetInCU: 0x340D7, offset: 0x340D7, size: 0x8, addend: 0x0, symName: __ZNSt8_Rb_treeINSt7__cxx1112basic_stringIcSt11char_traitsIcESaIcEEESt4pairIKS5_6RecordESt10_Select1stIS9_ESt4lessIS5_ESaIS9_EE6_M_endEv, symObjAddr: 0x4408, symBinAddr: 0x10000858C, symSize: 0x18 }
  - { offsetInCU: 0x34101, offset: 0x34101, size: 0x8, addend: 0x0, symName: __ZNKSt8__detail14_Node_iteratorISt4pairIKNSt7__cxx1112basic_stringIcSt11char_traitsIcESaIcEEE9DataTypesELb0ELb1EEptEv, symObjAddr: 0x43D8, symBinAddr: 0x10000855C, symSize: 0x30 }
  - { offsetInCU: 0x3414F, offset: 0x3414F, size: 0x8, addend: 0x0, symName: __ZNSt10_HashtableINSt7__cxx1112basic_stringIcSt11char_traitsIcESaIcEEESt4pairIKS5_9DataTypesESaIS9_ENSt8__detail10_Select1stESt8equal_toIS5_ESt4hashIS5_ENSB_18_Mod_range_hashingENSB_20_Default_ranged_hashENSB_20_Prime_rehash_policyENSB_17_Hashtable_traitsILb1ELb0ELb1EEEE21_M_insert_unique_nodeEmmPNSB_10_Hash_nodeIS9_Lb1EEEm, symObjAddr: 0x42C8, symBinAddr: 0x10000844C, symSize: 0x110 }
  - { offsetInCU: 0x34324, offset: 0x34324, size: 0x8, addend: 0x0, symName: __ZNSt10_HashtableINSt7__cxx1112basic_stringIcSt11char_traitsIcESaIcEEESt4pairIKS5_9DataTypesESaIS9_ENSt8__detail10_Select1stESt8equal_toIS5_ESt4hashIS5_ENSB_18_Mod_range_hashingENSB_20_Default_ranged_hashENSB_20_Prime_rehash_policyENSB_17_Hashtable_traitsILb1ELb0ELb1EEEE12_Scoped_nodeD1Ev, symObjAddr: 0x4284, symBinAddr: 0x100008408, symSize: 0x44 }
  - { offsetInCU: 0x3440F, offset: 0x3440F, size: 0x8, addend: 0x0, symName: __ZNSt10_HashtableINSt7__cxx1112basic_stringIcSt11char_traitsIcESaIcEEESt4pairIKS5_9DataTypesESaIS9_ENSt8__detail10_Select1stESt8equal_toIS5_ESt4hashIS5_ENSB_18_Mod_range_hashingENSB_20_Default_ranged_hashENSB_20_Prime_rehash_policyENSB_17_Hashtable_traitsILb1ELb0ELb1EEEE12_Scoped_nodeC1IJRKSt21piecewise_construct_tSt5tupleIJRS7_EESS_IJEEEEEPNSB_16_Hashtable_allocISaINSB_10_Hash_nodeIS9_Lb1EEEEEEDpOT_, symObjAddr: 0x41FC, symBinAddr: 0x100008380, symSize: 0x88 }
  - { offsetInCU: 0x342E5, offset: 0x342E5, size: 0x8, addend: 0x0, symName: __ZNKSt10_HashtableINSt7__cxx1112basic_stringIcSt11char_traitsIcESaIcEEESt4pairIKS5_9DataTypesESaIS9_ENSt8__detail10_Select1stESt8equal_toIS5_ESt4hashIS5_ENSB_18_Mod_range_hashingENSB_20_Default_ranged_hashENSB_20_Prime_rehash_policyENSB_17_Hashtable_traitsILb1ELb0ELb1EEEE12_M_find_nodeEmRS7_m, symObjAddr: 0x41A8, symBinAddr: 0x10000832C, symSize: 0x54 }
  - { offsetInCU: 0x34353, offset: 0x34353, size: 0x8, addend: 0x0, symName: __ZNKSt10_HashtableINSt7__cxx1112basic_stringIcSt11char_traitsIcESaIcEEESt4pairIKS5_9DataTypesESaIS9_ENSt8__detail10_Select1stESt8equal_toIS5_ESt4hashIS5_ENSB_18_Mod_range_hashingENSB_20_Default_ranged_hashENSB_20_Prime_rehash_policyENSB_17_Hashtable_traitsILb1ELb0ELb1EEEE15_M_bucket_indexEm, symObjAddr: 0x4178, symBinAddr: 0x1000082FC, symSize: 0x30 }
  - { offsetInCU: 0x3438E, offset: 0x3438E, size: 0x8, addend: 0x0, symName: __ZNKSt8__detail15_Hash_code_baseINSt7__cxx1112basic_stringIcSt11char_traitsIcESaIcEEESt4pairIKS6_9DataTypesENS_10_Select1stESt4hashIS6_ENS_18_Mod_range_hashingENS_20_Default_ranged_hashELb1EE12_M_hash_codeERS8_, symObjAddr: 0x4150, symBinAddr: 0x1000082D4, symSize: 0x28 }
  - { offsetInCU: 0x343C9, offset: 0x343C9, size: 0x8, addend: 0x0, symName: __ZNSt10_HashtableINSt7__cxx1112basic_stringIcSt11char_traitsIcESaIcEEESt4pairIKS5_9DataTypesESaIS9_ENSt8__detail10_Select1stESt8equal_toIS5_ESt4hashIS5_ENSB_18_Mod_range_hashingENSB_20_Default_ranged_hashENSB_20_Prime_rehash_policyENSB_17_Hashtable_traitsILb1ELb0ELb1EEEE9_M_assignIRKSM_NSB_17_ReuseOrAllocNodeISaINSB_10_Hash_nodeIS9_Lb1EEEEEEEEvOT_RKT0_, symObjAddr: 0x3F50, symBinAddr: 0x1000080D4, symSize: 0x200 }
  - { offsetInCU: 0x345D4, offset: 0x345D4, size: 0x8, addend: 0x0, symName: __ZNSt8__detail17_ReuseOrAllocNodeISaINS_10_Hash_nodeISt4pairIKNSt7__cxx1112basic_stringIcSt11char_traitsIcESaIcEEE9DataTypesELb1EEEEED1Ev, symObjAddr: 0x3F1C, symBinAddr: 0x1000080A0, symSize: 0x34 }
  - { offsetInCU: 0x3464D, offset: 0x3464D, size: 0x8, addend: 0x0, symName: __ZNSt8__detail17_ReuseOrAllocNodeISaINS_10_Hash_nodeISt4pairIKNSt7__cxx1112basic_stringIcSt11char_traitsIcESaIcEEE9DataTypesELb1EEEEEC1EPSC_RNS_16_Hashtable_allocISD_EE, symObjAddr: 0x3EE8, symBinAddr: 0x10000806C, symSize: 0x34 }
  - { offsetInCU: 0x345E3, offset: 0x345E3, size: 0x8, addend: 0x0, symName: __ZSt7forwardIRKSt10_HashtableINSt7__cxx1112basic_stringIcSt11char_traitsIcESaIcEEESt4pairIKS6_9DataTypesESaISA_ENSt8__detail10_Select1stESt8equal_toIS6_ESt4hashIS6_ENSC_18_Mod_range_hashingENSC_20_Default_ranged_hashENSC_20_Prime_rehash_policyENSC_17_Hashtable_traitsILb1ELb0ELb1EEEEEOT_RNSt16remove_referenceISQ_E4typeE, symObjAddr: 0x3ED4, symBinAddr: 0x100008058, symSize: 0x14 }
  - { offsetInCU: 0x34619, offset: 0x34619, size: 0x8, addend: 0x0, symName: __ZNKSt10_HashtableINSt7__cxx1112basic_stringIcSt11char_traitsIcESaIcEEESt4pairIKS5_9DataTypesESaIS9_ENSt8__detail10_Select1stESt8equal_toIS5_ESt4hashIS5_ENSB_18_Mod_range_hashingENSB_20_Default_ranged_hashENSB_20_Prime_rehash_policyENSB_17_Hashtable_traitsILb1ELb0ELb1EEEE15_M_bucket_indexERKNSB_16_Hash_node_valueIS9_Lb1EEE, symObjAddr: 0x3EA4, symBinAddr: 0x100008028, symSize: 0x30 }
  - { offsetInCU: 0x34654, offset: 0x34654, size: 0x8, addend: 0x0, symName: __ZNSt10_HashtableINSt7__cxx1112basic_stringIcSt11char_traitsIcESaIcEEESt4pairIKS5_9DataTypesESaIS9_ENSt8__detail10_Select1stESt8equal_toIS5_ESt4hashIS5_ENSB_18_Mod_range_hashingENSB_20_Default_ranged_hashENSB_20_Prime_rehash_policyENSB_17_Hashtable_traitsILb1ELb0ELb1EEEE16_M_update_bbeginEPNSB_10_Hash_nodeIS9_Lb1EEE, symObjAddr: 0x3E74, symBinAddr: 0x100007FF8, symSize: 0x30 }
  - { offsetInCU: 0x3468F, offset: 0x3468F, size: 0x8, addend: 0x0, symName: __ZNKSt8__detail15_Hash_code_baseINSt7__cxx1112basic_stringIcSt11char_traitsIcESaIcEEESt4pairIKS6_9DataTypesENS_10_Select1stESt4hashIS6_ENS_18_Mod_range_hashingENS_20_Default_ranged_hashELb1EE12_M_copy_codeERNS_21_Hash_node_code_cacheILb1EEERKSI_, symObjAddr: 0x3E48, symBinAddr: 0x100007FCC, symSize: 0x2C }
  - { offsetInCU: 0x346E6, offset: 0x346E6, size: 0x8, addend: 0x0, symName: __ZNKSt8__detail10_AllocNodeISaINS_10_Hash_nodeISt4pairIKNSt7__cxx1112basic_stringIcSt11char_traitsIcESaIcEEE9DataTypesELb1EEEEEclIJRKSB_EEEPSC_DpOT_, symObjAddr: 0x3E0C, symBinAddr: 0x100007F90, symSize: 0x3C }
  - { offsetInCU: 0x34726, offset: 0x34726, size: 0x8, addend: 0x0, symName: __ZNSt10_HashtableINSt7__cxx1112basic_stringIcSt11char_traitsIcESaIcEEESt4pairIKS5_9DataTypesESaIS9_ENSt8__detail10_Select1stESt8equal_toIS5_ESt4hashIS5_ENSB_18_Mod_range_hashingENSB_20_Default_ranged_hashENSB_20_Prime_rehash_policyENSB_17_Hashtable_traitsILb1ELb0ELb1EEEE15__fwd_value_forIRKSM_EENSt13__conditionalIXsrSt19is_lvalue_referenceIT_E5valueEE4typeIRKS9_OS9_EERS9_, symObjAddr: 0x3DF0, symBinAddr: 0x100007F74, symSize: 0x1C }
  - { offsetInCU: 0x34773, offset: 0x34773, size: 0x8, addend: 0x0, symName: __ZNSt10_HashtableINSt7__cxx1112basic_stringIcSt11char_traitsIcESaIcEEESt4pairIKS5_9DataTypesESaIS9_ENSt8__detail10_Select1stESt8equal_toIS5_ESt4hashIS5_ENSB_18_Mod_range_hashingENSB_20_Default_ranged_hashENSB_20_Prime_rehash_policyENSB_17_Hashtable_traitsILb1ELb0ELb1EEEE19_M_allocate_bucketsEm, symObjAddr: 0x3D98, symBinAddr: 0x100007F1C, symSize: 0x58 }
  - { offsetInCU: 0x347AE, offset: 0x347AE, size: 0x8, addend: 0x0, symName: __ZNSt8__detail16_Hashtable_allocISaINS_10_Hash_nodeISt4pairIKNSt7__cxx1112basic_stringIcSt11char_traitsIcESaIcEEE9DataTypesELb1EEEEE18_M_deallocate_nodeEPSC_, symObjAddr: 0x3D1C, symBinAddr: 0x100007EA0, symSize: 0x7C }
  - { offsetInCU: 0x34867, offset: 0x34867, size: 0x8, addend: 0x0, symName: __ZNKSt8__detail10_Hash_nodeISt4pairIKNSt7__cxx1112basic_stringIcSt11char_traitsIcESaIcEEE9DataTypesELb1EE7_M_nextEv, symObjAddr: 0x3D04, symBinAddr: 0x100007E88, symSize: 0x18 }
  - { offsetInCU: 0x34891, offset: 0x34891, size: 0x8, addend: 0x0, symName: __ZNKSt8__detail21_Hashtable_ebo_helperILi0ESaINS_10_Hash_nodeISt4pairIKNSt7__cxx1112basic_stringIcSt11char_traitsIcESaIcEEE9DataTypesELb1EEEELb1EE7_M_cgetEv, symObjAddr: 0x3CF0, symBinAddr: 0x100007E74, symSize: 0x14 }
  - { offsetInCU: 0x348BB, offset: 0x348BB, size: 0x8, addend: 0x0, symName: __ZNSt8__detail21_Hashtable_ebo_helperILi0ESaINS_10_Hash_nodeISt4pairIKNSt7__cxx1112basic_stringIcSt11char_traitsIcESaIcEEE9DataTypesELb1EEEELb1EE6_M_getEv, symObjAddr: 0x3CDC, symBinAddr: 0x100007E60, symSize: 0x14 }
  - { offsetInCU: 0x348E5, offset: 0x348E5, size: 0x8, addend: 0x0, symName: __ZNKSt8_Rb_treeINSt7__cxx1112basic_stringIcSt11char_traitsIcESaIcEEESt4pairIKS5_6RecordESt10_Select1stIS9_ESt4lessIS5_ESaIS9_EE9_M_mbeginEv, symObjAddr: 0x3CC4, symBinAddr: 0x100007E48, symSize: 0x18 }
  - { offsetInCU: 0x3490F, offset: 0x3490F, size: 0x8, addend: 0x0, symName: __ZNSt8_Rb_treeINSt7__cxx1112basic_stringIcSt11char_traitsIcESaIcEEESt4pairIKS5_6RecordESt10_Select1stIS9_ESt4lessIS5_ESaIS9_EE12_M_drop_nodeEPSt13_Rb_tree_nodeIS9_E, symObjAddr: 0x3C90, symBinAddr: 0x100007E14, symSize: 0x34 }
  - { offsetInCU: 0x34946, offset: 0x34946, size: 0x8, addend: 0x0, symName: __ZNSt8_Rb_treeINSt7__cxx1112basic_stringIcSt11char_traitsIcESaIcEEESt4pairIKS5_6RecordESt10_Select1stIS9_ESt4lessIS5_ESaIS9_EE7_S_leftEPSt18_Rb_tree_node_base, symObjAddr: 0x3C78, symBinAddr: 0x100007DFC, symSize: 0x18 }
  - { offsetInCU: 0x34970, offset: 0x34970, size: 0x8, addend: 0x0, symName: __ZNSt8_Rb_treeINSt7__cxx1112basic_stringIcSt11char_traitsIcESaIcEEESt4pairIKS5_6RecordESt10_Select1stIS9_ESt4lessIS5_ESaIS9_EE8_S_rightEPSt18_Rb_tree_node_base, symObjAddr: 0x3C60, symBinAddr: 0x100007DE4, symSize: 0x18 }
  - { offsetInCU: 0x349B4, offset: 0x349B4, size: 0x8, addend: 0x0, symName: __ZNSt10_HashtableINSt7__cxx1112basic_stringIcSt11char_traitsIcESaIcEEESt4pairIKS5_9DataTypesESaIS9_ENSt8__detail10_Select1stESt8equal_toIS5_ESt4hashIS5_ENSB_18_Mod_range_hashingENSB_20_Default_ranged_hashENSB_20_Prime_rehash_policyENSB_17_Hashtable_traitsILb1ELb0ELb1EEEE21_M_deallocate_bucketsEPPNSB_15_Hash_node_baseEm, symObjAddr: 0x3C14, symBinAddr: 0x100007D98, symSize: 0x4C }
  - { offsetInCU: 0x34AE3, offset: 0x34AE3, size: 0x8, addend: 0x0, symName: __ZNSt8__detail21_Hashtable_ebo_helperILi0ESaINS_10_Hash_nodeISt4pairIKNSt7__cxx1112basic_stringIcSt11char_traitsIcESaIcEEESt3anyELb1EEEELb1EEC2ISD_EEOT_, symObjAddr: 0x3BC8, symBinAddr: 0x100007D4C, symSize: 0x4C }
  - { offsetInCU: 0x34AE2, offset: 0x34AE2, size: 0x8, addend: 0x0, symName: __ZSt7forwardISaINSt8__detail10_Hash_nodeISt4pairIKNSt7__cxx1112basic_stringIcSt11char_traitsIcESaIcEEESt3anyELb1EEEEEOT_RNSt16remove_referenceISE_E4typeE, symObjAddr: 0x3BB4, symBinAddr: 0x100007D38, symSize: 0x14 }
  - { offsetInCU: 0x34B90, offset: 0x34B90, size: 0x8, addend: 0x0, symName: __ZNSt8__detail17_RehashStateGuardINS_20_Prime_rehash_policyEED1Ev, symObjAddr: 0x3B70, symBinAddr: 0x100007CF4, symSize: 0x44 }
  - { offsetInCU: 0x34BE1, offset: 0x34BE1, size: 0x8, addend: 0x0, symName: __ZNSt8__detail17_RehashStateGuardINS_20_Prime_rehash_policyEEC1ERS1_, symObjAddr: 0x3B2C, symBinAddr: 0x100007CB0, symSize: 0x44 }
  - { offsetInCU: 0x34BCF, offset: 0x34BCF, size: 0x8, addend: 0x0, symName: __ZNKSt10_HashtableINSt7__cxx1112basic_stringIcSt11char_traitsIcESaIcEEESt4pairIKS5_St3anyESaIS9_ENSt8__detail10_Select1stESt8equal_toIS5_ESt4hashIS5_ENSB_18_Mod_range_hashingENSB_20_Default_ranged_hashENSB_20_Prime_rehash_policyENSB_17_Hashtable_traitsILb1ELb0ELb1EEEE15_M_bucket_indexERKNSB_16_Hash_node_valueIS9_Lb1EEE, symObjAddr: 0x3AFC, symBinAddr: 0x100007C80, symSize: 0x30 }
  - { offsetInCU: 0x34C0A, offset: 0x34C0A, size: 0x8, addend: 0x0, symName: __ZNSt10_HashtableINSt7__cxx1112basic_stringIcSt11char_traitsIcESaIcEEESt4pairIKS5_St3anyESaIS9_ENSt8__detail10_Select1stESt8equal_toIS5_ESt4hashIS5_ENSB_18_Mod_range_hashingENSB_20_Default_ranged_hashENSB_20_Prime_rehash_policyENSB_17_Hashtable_traitsILb1ELb0ELb1EEEE16_M_update_bbeginEPNSB_10_Hash_nodeIS9_Lb1EEE, symObjAddr: 0x3ACC, symBinAddr: 0x100007C50, symSize: 0x30 }
  - { offsetInCU: 0x34C45, offset: 0x34C45, size: 0x8, addend: 0x0, symName: __ZNKSt8__detail15_Hash_code_baseINSt7__cxx1112basic_stringIcSt11char_traitsIcESaIcEEESt4pairIKS6_St3anyENS_10_Select1stESt4hashIS6_ENS_18_Mod_range_hashingENS_20_Default_ranged_hashELb1EE12_M_copy_codeERNS_21_Hash_node_code_cacheILb1EEERKSI_, symObjAddr: 0x3AA0, symBinAddr: 0x100007C24, symSize: 0x2C }
  - { offsetInCU: 0x34C9C, offset: 0x34C9C, size: 0x8, addend: 0x0, symName: __ZNKSt8__detail10_AllocNodeISaINS_10_Hash_nodeISt4pairIKNSt7__cxx1112basic_stringIcSt11char_traitsIcESaIcEEESt3anyELb1EEEEEclIJRKSB_EEEPSC_DpOT_, symObjAddr: 0x3A64, symBinAddr: 0x100007BE8, symSize: 0x3C }
  - { offsetInCU: 0x34CDC, offset: 0x34CDC, size: 0x8, addend: 0x0, symName: __ZNSt10_HashtableINSt7__cxx1112basic_stringIcSt11char_traitsIcESaIcEEESt4pairIKS5_St3anyESaIS9_ENSt8__detail10_Select1stESt8equal_toIS5_ESt4hashIS5_ENSB_18_Mod_range_hashingENSB_20_Default_ranged_hashENSB_20_Prime_rehash_policyENSB_17_Hashtable_traitsILb1ELb0ELb1EEEE15__fwd_value_forIRKSM_EENSt13__conditionalIXsrSt19is_lvalue_referenceIT_E5valueEE4typeIRKS9_OS9_EERS9_, symObjAddr: 0x3A48, symBinAddr: 0x100007BCC, symSize: 0x1C }
  - { offsetInCU: 0x34D13, offset: 0x34D13, size: 0x8, addend: 0x0, symName: __ZNSt10_HashtableINSt7__cxx1112basic_stringIcSt11char_traitsIcESaIcEEESt4pairIKS5_St3anyESaIS9_ENSt8__detail10_Select1stESt8equal_toIS5_ESt4hashIS5_ENSB_18_Mod_range_hashingENSB_20_Default_ranged_hashENSB_20_Prime_rehash_policyENSB_17_Hashtable_traitsILb1ELb0ELb1EEEE19_M_allocate_bucketsEm, symObjAddr: 0x39F0, symBinAddr: 0x100007B74, symSize: 0x58 }
  - { offsetInCU: 0x34D4E, offset: 0x34D4E, size: 0x8, addend: 0x0, symName: __ZNSt8__detail16_Hashtable_allocISaINS_10_Hash_nodeISt4pairIKNSt7__cxx1112basic_stringIcSt11char_traitsIcESaIcEEESt3anyELb1EEEEE18_M_deallocate_nodeEPSC_, symObjAddr: 0x3974, symBinAddr: 0x100007AF8, symSize: 0x7C }
  - { offsetInCU: 0x34E07, offset: 0x34E07, size: 0x8, addend: 0x0, symName: __ZNKSt8__detail10_Hash_nodeISt4pairIKNSt7__cxx1112basic_stringIcSt11char_traitsIcESaIcEEESt3anyELb1EE7_M_nextEv, symObjAddr: 0x395C, symBinAddr: 0x100007AE0, symSize: 0x18 }
  - { offsetInCU: 0x34E31, offset: 0x34E31, size: 0x8, addend: 0x0, symName: __ZNKSt8__detail21_Hashtable_ebo_helperILi0ESaINS_10_Hash_nodeISt4pairIKNSt7__cxx1112basic_stringIcSt11char_traitsIcESaIcEEESt3anyELb1EEEELb1EE7_M_cgetEv, symObjAddr: 0x3948, symBinAddr: 0x100007ACC, symSize: 0x14 }
  - { offsetInCU: 0x34E5B, offset: 0x34E5B, size: 0x8, addend: 0x0, symName: __ZNSt8__detail21_Hashtable_ebo_helperILi0ESaINS_10_Hash_nodeISt4pairIKNSt7__cxx1112basic_stringIcSt11char_traitsIcESaIcEEESt3anyELb1EEEELb1EE6_M_getEv, symObjAddr: 0x3934, symBinAddr: 0x100007AB8, symSize: 0x14 }
  - { offsetInCU: 0x34E85, offset: 0x34E85, size: 0x8, addend: 0x0, symName: __ZNSt10_HashtableINSt7__cxx1112basic_stringIcSt11char_traitsIcESaIcEEESt4pairIKS5_St3anyESaIS9_ENSt8__detail10_Select1stESt8equal_toIS5_ESt4hashIS5_ENSB_18_Mod_range_hashingENSB_20_Default_ranged_hashENSB_20_Prime_rehash_policyENSB_17_Hashtable_traitsILb1ELb0ELb1EEEE21_M_deallocate_bucketsEPPNSB_15_Hash_node_baseEm, symObjAddr: 0x38E8, symBinAddr: 0x100007A6C, symSize: 0x4C }
  - { offsetInCU: 0x34EFC, offset: 0x34EFC, size: 0x8, addend: 0x0, symName: __ZNK9__gnu_cxx17__normal_iteratorIPNSt7__cxx1112basic_stringIcSt11char_traitsIcESaIcEEESt6vectorIS6_SaIS6_EEE4baseEv, symObjAddr: 0x38D4, symBinAddr: 0x100007A58, symSize: 0x14 }
  - { offsetInCU: 0x34FBF, offset: 0x34FBF, size: 0x8, addend: 0x0, symName: __ZN9__gnu_cxx17__normal_iteratorIPNSt7__cxx1112basic_stringIcSt11char_traitsIcESaIcEEESt6vectorIS6_SaIS6_EEEC1ERKS7_, symObjAddr: 0x38AC, symBinAddr: 0x100007A30, symSize: 0x28 }
  - { offsetInCU: 0x34F7D, offset: 0x34F7D, size: 0x8, addend: 0x0, symName: __ZNSt8__detail9_Map_baseINSt7__cxx1112basic_stringIcSt11char_traitsIcESaIcEEESt4pairIKS6_9DataTypesESaISA_ENS_10_Select1stESt8equal_toIS6_ESt4hashIS6_ENS_18_Mod_range_hashingENS_20_Default_ranged_hashENS_20_Prime_rehash_policyENS_17_Hashtable_traitsILb1ELb0ELb1EEELb1EEixEOS6_, symObjAddr: 0x377C, symBinAddr: 0x100007900, symSize: 0x130 }
  - { offsetInCU: 0x35083, offset: 0x35083, size: 0x8, addend: 0x0, symName: __ZNSt10_HashtableINSt7__cxx1112basic_stringIcSt11char_traitsIcESaIcEEESt4pairIKS5_5TableESaIS9_ENSt8__detail10_Select1stESt8equal_toIS5_ESt4hashIS5_ENSB_18_Mod_range_hashingENSB_20_Default_ranged_hashENSB_20_Prime_rehash_policyENSB_17_Hashtable_traitsILb1ELb0ELb1EEEE21_M_deallocate_bucketsEv, symObjAddr: 0x3748, symBinAddr: 0x1000078CC, symSize: 0x34 }
  - { offsetInCU: 0x350AD, offset: 0x350AD, size: 0x8, addend: 0x0, symName: __ZNSt10_HashtableINSt7__cxx1112basic_stringIcSt11char_traitsIcESaIcEEESt4pairIKS5_5TableESaIS9_ENSt8__detail10_Select1stESt8equal_toIS5_ESt4hashIS5_ENSB_18_Mod_range_hashingENSB_20_Default_ranged_hashENSB_20_Prime_rehash_policyENSB_17_Hashtable_traitsILb1ELb0ELb1EEEE5clearEv, symObjAddr: 0x36E8, symBinAddr: 0x10000786C, symSize: 0x60 }
  - { offsetInCU: 0x35177, offset: 0x35177, size: 0x8, addend: 0x0, symName: __ZNSt15__new_allocatorINSt8__detail10_Hash_nodeISt4pairIKNSt7__cxx1112basic_stringIcSt11char_traitsIcESaIcEEE5TableELb1EEEED2Ev, symObjAddr: 0x36D4, symBinAddr: 0x100007858, symSize: 0x14 }
  - { offsetInCU: 0x35137, offset: 0x35137, size: 0x8, addend: 0x0, symName: __ZNSt8_Rb_treeINSt7__cxx1112basic_stringIcSt11char_traitsIcESaIcEEESt4pairIKS5_6RecordESt10_Select1stIS9_ESt4lessIS5_ESaIS9_EE7_M_copyILb0ENSF_20_Reuse_or_alloc_nodeEEEPSt13_Rb_tree_nodeIS9_ERKSF_RT0_, symObjAddr: 0x3640, symBinAddr: 0x1000077C4, symSize: 0x94 }
  - { offsetInCU: 0x35260, offset: 0x35260, size: 0x8, addend: 0x0, symName: __ZNSt8_Rb_treeINSt7__cxx1112basic_stringIcSt11char_traitsIcESaIcEEESt4pairIKS5_6RecordESt10_Select1stIS9_ESt4lessIS5_ESaIS9_EE20_Reuse_or_alloc_nodeD1Ev, symObjAddr: 0x360C, symBinAddr: 0x100007790, symSize: 0x34 }
  - { offsetInCU: 0x352B1, offset: 0x352B1, size: 0x8, addend: 0x0, symName: __ZNSt8_Rb_treeINSt7__cxx1112basic_stringIcSt11char_traitsIcESaIcEEESt4pairIKS5_6RecordESt10_Select1stIS9_ESt4lessIS5_ESaIS9_EE20_Reuse_or_alloc_nodeC1ERSF_, symObjAddr: 0x356C, symBinAddr: 0x1000076F0, symSize: 0xA0 }
  - { offsetInCU: 0x35275, offset: 0x35275, size: 0x8, addend: 0x0, symName: __ZNSt8_Rb_treeINSt7__cxx1112basic_stringIcSt11char_traitsIcESaIcEEESt4pairIKS5_6RecordESt10_Select1stIS9_ESt4lessIS5_ESaIS9_EE5clearEv, symObjAddr: 0x3534, symBinAddr: 0x1000076B8, symSize: 0x38 }
  - { offsetInCU: 0x352B1, offset: 0x352B1, size: 0x8, addend: 0x0, symName: __ZNKSt8_Rb_treeINSt7__cxx1112basic_stringIcSt11char_traitsIcESaIcEEESt4pairIKS5_6RecordESt10_Select1stIS9_ESt4lessIS5_ESaIS9_EE21_M_get_Node_allocatorEv, symObjAddr: 0x3520, symBinAddr: 0x1000076A4, symSize: 0x14 }
  - { offsetInCU: 0x352DB, offset: 0x352DB, size: 0x8, addend: 0x0, symName: __ZNSt8_Rb_treeINSt7__cxx1112basic_stringIcSt11char_traitsIcESaIcEEESt4pairIKS5_6RecordESt10_Select1stIS9_ESt4lessIS5_ESaIS9_EE21_M_get_Node_allocatorEv, symObjAddr: 0x350C, symBinAddr: 0x100007690, symSize: 0x14 }
  - { offsetInCU: 0x35301, offset: 0x35301, size: 0x8, addend: 0x0, symName: __ZSt11__addressofIKSt8_Rb_treeINSt7__cxx1112basic_stringIcSt11char_traitsIcESaIcEEESt4pairIKS6_6RecordESt10_Select1stISA_ESt4lessIS6_ESaISA_EEEPT_RSI_, symObjAddr: 0x34F8, symBinAddr: 0x10000767C, symSize: 0x14 }
  - { offsetInCU: 0x35337, offset: 0x35337, size: 0x8, addend: 0x0, symName: __ZNSt8__detail9_Map_baseINSt7__cxx1112basic_stringIcSt11char_traitsIcESaIcEEESt4pairIKS6_5TableESaISA_ENS_10_Select1stESt8equal_toIS6_ESt4hashIS6_ENS_18_Mod_range_hashingENS_20_Default_ranged_hashENS_20_Prime_rehash_policyENS_17_Hashtable_traitsILb1ELb0ELb1EEELb1EEixERS8_, symObjAddr: 0x33D8, symBinAddr: 0x10000755C, symSize: 0x120 }
  - { offsetInCU: 0x3543D, offset: 0x3543D, size: 0x8, addend: 0x0, symName: __ZNSt10_HashtableINSt7__cxx1112basic_stringIcSt11char_traitsIcESaIcEEESt4pairIKS5_5TableESaIS9_ENSt8__detail10_Select1stESt8equal_toIS5_ESt4hashIS5_ENSB_18_Mod_range_hashingENSB_20_Default_ranged_hashENSB_20_Prime_rehash_policyENSB_17_Hashtable_traitsILb1ELb0ELb1EEEE4findERS7_, symObjAddr: 0x32E0, symBinAddr: 0x100007464, symSize: 0xF8 }
  - { offsetInCU: 0x354BE, offset: 0x354BE, size: 0x8, addend: 0x0, symName: __ZNSt6vectorINSt7__cxx1112basic_stringIcSt11char_traitsIcESaIcEEESaIS5_EE17_M_realloc_appendIJRKS5_EEEvDpOT_, symObjAddr: 0x30E4, symBinAddr: 0x100007268, symSize: 0x1FC }
  - { offsetInCU: 0x356C2, offset: 0x356C2, size: 0x8, addend: 0x0, symName: __ZZNSt6vectorINSt7__cxx1112basic_stringIcSt11char_traitsIcESaIcEEESaIS5_EE17_M_realloc_appendIJRKS5_EEEvDpOT_EN6_GuardC1EPS5_mRS6_, symObjAddr: 0x3040, symBinAddr: 0x1000071C4, symSize: 0x44 }
  - { offsetInCU: 0x35700, offset: 0x35700, size: 0x8, addend: 0x0, symName: __ZZNSt6vectorINSt7__cxx1112basic_stringIcSt11char_traitsIcESaIcEEESaIS5_EE17_M_realloc_appendIJRKS5_EEEvDpOT_EN6_GuardD1Ev, symObjAddr: 0x3084, symBinAddr: 0x100007208, symSize: 0x60 }
  - { offsetInCU: 0x357BB, offset: 0x357BB, size: 0x8, addend: 0x0, symName: __ZNSt8_Rb_treeINSt7__cxx1112basic_stringIcSt11char_traitsIcESaIcEEESt4pairIKS5_6RecordESt10_Select1stIS9_ESt4lessIS5_ESaIS9_EE7_M_copyERKSF_, symObjAddr: 0x3008, symBinAddr: 0x10000718C, symSize: 0x38 }
  - { offsetInCU: 0x35807, offset: 0x35807, size: 0x8, addend: 0x0, symName: __ZNSt8_Rb_treeINSt7__cxx1112basic_stringIcSt11char_traitsIcESaIcEEESt4pairIKS5_6RecordESt10_Select1stIS9_ESt4lessIS5_ESaIS9_EE7_M_rootEv, symObjAddr: 0x2FF0, symBinAddr: 0x100007174, symSize: 0x18 }
  - { offsetInCU: 0x35831, offset: 0x35831, size: 0x8, addend: 0x0, symName: __ZNKSt8_Rb_treeINSt7__cxx1112basic_stringIcSt11char_traitsIcESaIcEEESt4pairIKS5_6RecordESt10_Select1stIS9_ESt4lessIS5_ESaIS9_EE7_M_rootEv, symObjAddr: 0x2FD8, symBinAddr: 0x10000715C, symSize: 0x18 }
  - { offsetInCU: 0x3591E, offset: 0x3591E, size: 0x8, addend: 0x0, symName: __ZNSt8_Rb_treeINSt7__cxx1112basic_stringIcSt11char_traitsIcESaIcEEESt4pairIKS5_6RecordESt10_Select1stIS9_ESt4lessIS5_ESaIS9_EE13_Rb_tree_implISD_Lb1EEC1ERKSH_, symObjAddr: 0x2F38, symBinAddr: 0x1000070BC, symSize: 0xA0 }
  - { offsetInCU: 0x35A89, offset: 0x35A89, size: 0x8, addend: 0x0, symName: __ZNSt8__detail16_Hashtable_allocISaINS_10_Hash_nodeISt4pairIKNSt7__cxx1112basic_stringIcSt11char_traitsIcESaIcEEE9DataTypesELb1EEEEEC2ISD_EEOT_, symObjAddr: 0x2F08, symBinAddr: 0x10000708C, symSize: 0x30 }
  - { offsetInCU: 0x35A60, offset: 0x35A60, size: 0x8, addend: 0x0, symName: __ZNSt8__detail19_Node_iterator_baseISt4pairIKNSt7__cxx1112basic_stringIcSt11char_traitsIcESaIcEEE5TableELb1EE7_M_incrEv, symObjAddr: 0x2ED8, symBinAddr: 0x10000705C, symSize: 0x30 }
  - { offsetInCU: 0x35A8A, offset: 0x35A8A, size: 0x8, addend: 0x0, symName: __ZNSt10_HashtableINSt7__cxx1112basic_stringIcSt11char_traitsIcESaIcEEESt4pairIKS5_5TableESaIS9_ENSt8__detail10_Select1stESt8equal_toIS5_ESt4hashIS5_ENSB_18_Mod_range_hashingENSB_20_Default_ranged_hashENSB_20_Prime_rehash_policyENSB_17_Hashtable_traitsILb1ELb0ELb1EEEE3endEv, symObjAddr: 0x2EB4, symBinAddr: 0x100007038, symSize: 0x24 }
  - { offsetInCU: 0x35AB4, offset: 0x35AB4, size: 0x8, addend: 0x0, symName: __ZNSt10_HashtableINSt7__cxx1112basic_stringIcSt11char_traitsIcESaIcEEESt4pairIKS5_5TableESaIS9_ENSt8__detail10_Select1stESt8equal_toIS5_ESt4hashIS5_ENSB_18_Mod_range_hashingENSB_20_Default_ranged_hashENSB_20_Prime_rehash_policyENSB_17_Hashtable_traitsILb1ELb0ELb1EEEE5beginEv, symObjAddr: 0x2E88, symBinAddr: 0x10000700C, symSize: 0x2C }
  - { offsetInCU: 0x35B19, offset: 0x35B19, size: 0x8, addend: 0x0, symName: __ZNSt12_Vector_baseINSt7__cxx1112basic_stringIcSt11char_traitsIcESaIcEEESaIS5_EE19_M_get_Tp_allocatorEv, symObjAddr: 0x2E74, symBinAddr: 0x100006FF8, symSize: 0x14 }
  - { offsetInCU: 0x35B43, offset: 0x35B43, size: 0x8, addend: 0x0, symName: __ZNSt12_Vector_baseINSt7__cxx1112basic_stringIcSt11char_traitsIcESaIcEEESaIS5_EE13_M_deallocateEPS5_m, symObjAddr: 0x2E1C, symBinAddr: 0x100006FA0, symSize: 0x58 }
  - { offsetInCU: 0x35C36, offset: 0x35C36, size: 0x8, addend: 0x0, symName: __ZNSt15__new_allocatorINSt7__cxx1112basic_stringIcSt11char_traitsIcESaIcEEEED2Ev, symObjAddr: 0x2E08, symBinAddr: 0x100006F8C, symSize: 0x14 }
  - { offsetInCU: 0x35C8D, offset: 0x35C8D, size: 0x8, addend: 0x0, symName: __ZNSt12_Vector_baseINSt7__cxx1112basic_stringIcSt11char_traitsIcESaIcEEESaIS5_EE17_Vector_impl_dataC2Ev, symObjAddr: 0x2DDC, symBinAddr: 0x100006F60, symSize: 0x2C }
  - { offsetInCU: 0x35C61, offset: 0x35C61, size: 0x8, addend: 0x0, symName: __ZSteqIcSt11char_traitsIcESaIcEEbRKNSt7__cxx1112basic_stringIT_T0_T1_EESA_, symObjAddr: 0x2D5C, symBinAddr: 0x100006EE0, symSize: 0x80 }
  - { offsetInCU: 0x35CD1, offset: 0x35CD1, size: 0x8, addend: 0x0, symName: __ZNSt13_Rb_tree_nodeISt4pairIKNSt7__cxx1112basic_stringIcSt11char_traitsIcESaIcEEE6RecordEE9_M_valptrEv, symObjAddr: 0x2D3C, symBinAddr: 0x100006EC0, symSize: 0x20 }
  - { offsetInCU: 0x35D2B, offset: 0x35D2B, size: 0x8, addend: 0x0, symName: __ZN6RecordC1ERKS_, symObjAddr: 0x2D14, symBinAddr: 0x100006E98, symSize: 0x28 }
  - { offsetInCU: 0x35DD0, offset: 0x35DD0, size: 0x8, addend: 0x0, symName: __ZNSt5tupleIJRKNSt7__cxx1112basic_stringIcSt11char_traitsIcESaIcEEEEEC1ILb1ELb1EEES7_, symObjAddr: 0x2CEC, symBinAddr: 0x100006E70, symSize: 0x28 }
  - { offsetInCU: 0x35DB3, offset: 0x35DB3, size: 0x8, addend: 0x0, symName: __ZSt16forward_as_tupleIJNSt7__cxx1112basic_stringIcSt11char_traitsIcESaIcEEEEESt5tupleIJDpOT_EES9_, symObjAddr: 0x2CB4, symBinAddr: 0x100006E38, symSize: 0x38 }
  - { offsetInCU: 0x35DEB, offset: 0x35DEB, size: 0x8, addend: 0x0, symName: __ZNSt8__detail9_Map_baseINSt7__cxx1112basic_stringIcSt11char_traitsIcESaIcEEESt4pairIKS6_9DataTypesESaISA_ENS_10_Select1stESt8equal_toIS6_ESt4hashIS6_ENS_18_Mod_range_hashingENS_20_Default_ranged_hashENS_20_Prime_rehash_policyENS_17_Hashtable_traitsILb1ELb0ELb1EEELb1EEixERS8_, symObjAddr: 0x2B94, symBinAddr: 0x100006D18, symSize: 0x120 }
  - { offsetInCU: 0x35F01, offset: 0x35F01, size: 0x8, addend: 0x0, symName: __ZNSt10_HashtableINSt7__cxx1112basic_stringIcSt11char_traitsIcESaIcEEESt4pairIKS5_9DataTypesESaIS9_ENSt8__detail10_Select1stESt8equal_toIS5_ESt4hashIS5_ENSB_18_Mod_range_hashingENSB_20_Default_ranged_hashENSB_20_Prime_rehash_policyENSB_17_Hashtable_traitsILb1ELb0ELb1EEEE18_M_assign_elementsIRKSM_EEvOT_, symObjAddr: 0x29B8, symBinAddr: 0x100006B3C, symSize: 0x1DC }
  - { offsetInCU: 0x35F90, offset: 0x35F90, size: 0x8, addend: 0x0, symName: __ZNSt10_HashtableINSt7__cxx1112basic_stringIcSt11char_traitsIcESaIcEEESt4pairIKS5_9DataTypesESaIS9_ENSt8__detail10_Select1stESt8equal_toIS5_ESt4hashIS5_ENSB_18_Mod_range_hashingENSB_20_Default_ranged_hashENSB_20_Prime_rehash_policyENSB_17_Hashtable_traitsILb1ELb0ELb1EEEE8_M_resetEv, symObjAddr: 0x2960, symBinAddr: 0x100006AE4, symSize: 0x58 }
  - { offsetInCU: 0x35FC1, offset: 0x35FC1, size: 0x8, addend: 0x0, symName: __ZNSt10_HashtableINSt7__cxx1112basic_stringIcSt11char_traitsIcESaIcEEESt4pairIKS5_9DataTypesESaIS9_ENSt8__detail10_Select1stESt8equal_toIS5_ESt4hashIS5_ENSB_18_Mod_range_hashingENSB_20_Default_ranged_hashENSB_20_Prime_rehash_policyENSB_17_Hashtable_traitsILb1ELb0ELb1EEEE9_M_assignIRKSM_NSB_10_AllocNodeISaINSB_10_Hash_nodeIS9_Lb1EEEEEEEEvOT_RKT0_, symObjAddr: 0x2760, symBinAddr: 0x1000068E4, symSize: 0x200 }
  - { offsetInCU: 0x361E3, offset: 0x361E3, size: 0x8, addend: 0x0, symName: __ZNSt8__detail10_AllocNodeISaINS_10_Hash_nodeISt4pairIKNSt7__cxx1112basic_stringIcSt11char_traitsIcESaIcEEE9DataTypesELb1EEEEEC1ERNS_16_Hashtable_allocISD_EE, symObjAddr: 0x273C, symBinAddr: 0x1000068C0, symSize: 0x24 }
  - { offsetInCU: 0x361A5, offset: 0x361A5, size: 0x8, addend: 0x0, symName: __ZNSt8__detail16_Hashtable_allocISaINS_10_Hash_nodeISt4pairIKNSt7__cxx1112basic_stringIcSt11char_traitsIcESaIcEEE9DataTypesELb1EEEEE19_M_deallocate_nodesEPSC_, symObjAddr: 0x26EC, symBinAddr: 0x100006870, symSize: 0x50 }
  - { offsetInCU: 0x36204, offset: 0x36204, size: 0x8, addend: 0x0, symName: __ZNKSt10_HashtableINSt7__cxx1112basic_stringIcSt11char_traitsIcESaIcEEESt4pairIKS5_9DataTypesESaIS9_ENSt8__detail10_Select1stESt8equal_toIS5_ESt4hashIS5_ENSB_18_Mod_range_hashingENSB_20_Default_ranged_hashENSB_20_Prime_rehash_policyENSB_17_Hashtable_traitsILb1ELb0ELb1EEEE8_M_beginEv, symObjAddr: 0x26D4, symBinAddr: 0x100006858, symSize: 0x18 }
  - { offsetInCU: 0x36240, offset: 0x36240, size: 0x8, addend: 0x0, symName: __ZNKSt8__detail16_Hashtable_allocISaINS_10_Hash_nodeISt4pairIKNSt7__cxx1112basic_stringIcSt11char_traitsIcESaIcEEE9DataTypesELb1EEEEE17_M_node_allocatorEv, symObjAddr: 0x26B8, symBinAddr: 0x10000683C, symSize: 0x1C }
  - { offsetInCU: 0x3626A, offset: 0x3626A, size: 0x8, addend: 0x0, symName: __ZNSt8__detail16_Hashtable_allocISaINS_10_Hash_nodeISt4pairIKNSt7__cxx1112basic_stringIcSt11char_traitsIcESaIcEEE9DataTypesELb1EEEEE17_M_node_allocatorEv, symObjAddr: 0x269C, symBinAddr: 0x100006820, symSize: 0x1C }
  - { offsetInCU: 0x36294, offset: 0x36294, size: 0x8, addend: 0x0, symName: __ZNSt8_Rb_treeINSt7__cxx1112basic_stringIcSt11char_traitsIcESaIcEEESt4pairIKS5_6RecordESt10_Select1stIS9_ESt4lessIS5_ESaIS9_EE8_M_beginEv, symObjAddr: 0x2680, symBinAddr: 0x100006804, symSize: 0x1C }
  - { offsetInCU: 0x362BE, offset: 0x362BE, size: 0x8, addend: 0x0, symName: __ZNSt8_Rb_treeINSt7__cxx1112basic_stringIcSt11char_traitsIcESaIcEEESt4pairIKS5_6RecordESt10_Select1stIS9_ESt4lessIS5_ESaIS9_EE8_M_eraseEPSt13_Rb_tree_nodeIS9_E, symObjAddr: 0x261C, symBinAddr: 0x1000067A0, symSize: 0x64 }
  - { offsetInCU: 0x363B2, offset: 0x363B2, size: 0x8, addend: 0x0, symName: __ZNSt15__new_allocatorISt13_Rb_tree_nodeISt4pairIKNSt7__cxx1112basic_stringIcSt11char_traitsIcESaIcEEE6RecordEEED2Ev, symObjAddr: 0x2608, symBinAddr: 0x10000678C, symSize: 0x14 }
  - { offsetInCU: 0x363DC, offset: 0x363DC, size: 0x8, addend: 0x0, symName: __ZNSt20_Rb_tree_key_compareISt4lessINSt7__cxx1112basic_stringIcSt11char_traitsIcESaIcEEEEEC2Ev, symObjAddr: 0x25F4, symBinAddr: 0x100006778, symSize: 0x14 }
  - { offsetInCU: 0x363BD, offset: 0x363BD, size: 0x8, addend: 0x0, symName: __ZNSt10_HashtableINSt7__cxx1112basic_stringIcSt11char_traitsIcESaIcEEESt4pairIKS5_9DataTypesESaIS9_ENSt8__detail10_Select1stESt8equal_toIS5_ESt4hashIS5_ENSB_18_Mod_range_hashingENSB_20_Default_ranged_hashENSB_20_Prime_rehash_policyENSB_17_Hashtable_traitsILb1ELb0ELb1EEEE21_M_deallocate_bucketsEv, symObjAddr: 0x25C0, symBinAddr: 0x100006744, symSize: 0x34 }
  - { offsetInCU: 0x363E7, offset: 0x363E7, size: 0x8, addend: 0x0, symName: __ZNSt10_HashtableINSt7__cxx1112basic_stringIcSt11char_traitsIcESaIcEEESt4pairIKS5_9DataTypesESaIS9_ENSt8__detail10_Select1stESt8equal_toIS5_ESt4hashIS5_ENSB_18_Mod_range_hashingENSB_20_Default_ranged_hashENSB_20_Prime_rehash_policyENSB_17_Hashtable_traitsILb1ELb0ELb1EEEE5clearEv, symObjAddr: 0x2560, symBinAddr: 0x1000066E4, symSize: 0x60 }
  - { offsetInCU: 0x364B5, offset: 0x364B5, size: 0x8, addend: 0x0, symName: __ZNSt15__new_allocatorINSt8__detail10_Hash_nodeISt4pairIKNSt7__cxx1112basic_stringIcSt11char_traitsIcESaIcEEE9DataTypesELb1EEEED2Ev, symObjAddr: 0x254C, symBinAddr: 0x1000066D0, symSize: 0x14 }
  - { offsetInCU: 0x3652A, offset: 0x3652A, size: 0x8, addend: 0x0, symName: __ZNSt8__detail16_Hashtable_allocISaINS_10_Hash_nodeISt4pairIKNSt7__cxx1112basic_stringIcSt11char_traitsIcESaIcEEESt3anyELb1EEEEEC2ISD_EEOT_, symObjAddr: 0x251C, symBinAddr: 0x1000066A0, symSize: 0x30 }
  - { offsetInCU: 0x364F6, offset: 0x364F6, size: 0x8, addend: 0x0, symName: __ZNSt10_HashtableINSt7__cxx1112basic_stringIcSt11char_traitsIcESaIcEEESt4pairIKS5_St3anyESaIS9_ENSt8__detail10_Select1stESt8equal_toIS5_ESt4hashIS5_ENSB_18_Mod_range_hashingENSB_20_Default_ranged_hashENSB_20_Prime_rehash_policyENSB_17_Hashtable_traitsILb1ELb0ELb1EEEE9_M_assignIRKSM_NSB_10_AllocNodeISaINSB_10_Hash_nodeIS9_Lb1EEEEEEEEvOT_RKT0_, symObjAddr: 0x231C, symBinAddr: 0x1000064A0, symSize: 0x200 }
  - { offsetInCU: 0x36714, offset: 0x36714, size: 0x8, addend: 0x0, symName: __ZNSt8__detail10_AllocNodeISaINS_10_Hash_nodeISt4pairIKNSt7__cxx1112basic_stringIcSt11char_traitsIcESaIcEEESt3anyELb1EEEEEC1ERNS_16_Hashtable_allocISD_EE, symObjAddr: 0x22F8, symBinAddr: 0x10000647C, symSize: 0x24 }
  - { offsetInCU: 0x366AD, offset: 0x366AD, size: 0x8, addend: 0x0, symName: __ZNSt8__detail16_Hashtable_allocISaINS_10_Hash_nodeISt4pairIKNSt7__cxx1112basic_stringIcSt11char_traitsIcESaIcEEESt3anyELb1EEEEE19_M_deallocate_nodesEPSC_, symObjAddr: 0x22A8, symBinAddr: 0x10000642C, symSize: 0x50 }
  - { offsetInCU: 0x3670C, offset: 0x3670C, size: 0x8, addend: 0x0, symName: __ZNKSt10_HashtableINSt7__cxx1112basic_stringIcSt11char_traitsIcESaIcEEESt4pairIKS5_St3anyESaIS9_ENSt8__detail10_Select1stESt8equal_toIS5_ESt4hashIS5_ENSB_18_Mod_range_hashingENSB_20_Default_ranged_hashENSB_20_Prime_rehash_policyENSB_17_Hashtable_traitsILb1ELb0ELb1EEEE8_M_beginEv, symObjAddr: 0x2290, symBinAddr: 0x100006414, symSize: 0x18 }
  - { offsetInCU: 0x36736, offset: 0x36736, size: 0x8, addend: 0x0, symName: __ZNKSt8__detail16_Hashtable_allocISaINS_10_Hash_nodeISt4pairIKNSt7__cxx1112basic_stringIcSt11char_traitsIcESaIcEEESt3anyELb1EEEEE17_M_node_allocatorEv, symObjAddr: 0x2274, symBinAddr: 0x1000063F8, symSize: 0x1C }
  - { offsetInCU: 0x36760, offset: 0x36760, size: 0x8, addend: 0x0, symName: __ZNSt8__detail16_Hashtable_allocISaINS_10_Hash_nodeISt4pairIKNSt7__cxx1112basic_stringIcSt11char_traitsIcESaIcEEESt3anyELb1EEEEE17_M_node_allocatorEv, symObjAddr: 0x2258, symBinAddr: 0x1000063DC, symSize: 0x1C }
  - { offsetInCU: 0x3678A, offset: 0x3678A, size: 0x8, addend: 0x0, symName: __ZNSt10_HashtableINSt7__cxx1112basic_stringIcSt11char_traitsIcESaIcEEESt4pairIKS5_St3anyESaIS9_ENSt8__detail10_Select1stESt8equal_toIS5_ESt4hashIS5_ENSB_18_Mod_range_hashingENSB_20_Default_ranged_hashENSB_20_Prime_rehash_policyENSB_17_Hashtable_traitsILb1ELb0ELb1EEEE21_M_deallocate_bucketsEv, symObjAddr: 0x2224, symBinAddr: 0x1000063A8, symSize: 0x34 }
  - { offsetInCU: 0x367B4, offset: 0x367B4, size: 0x8, addend: 0x0, symName: __ZNSt10_HashtableINSt7__cxx1112basic_stringIcSt11char_traitsIcESaIcEEESt4pairIKS5_St3anyESaIS9_ENSt8__detail10_Select1stESt8equal_toIS5_ESt4hashIS5_ENSB_18_Mod_range_hashingENSB_20_Default_ranged_hashENSB_20_Prime_rehash_policyENSB_17_Hashtable_traitsILb1ELb0ELb1EEEE5clearEv, symObjAddr: 0x21C4, symBinAddr: 0x100006348, symSize: 0x60 }
  - { offsetInCU: 0x3687E, offset: 0x3687E, size: 0x8, addend: 0x0, symName: __ZNSt15__new_allocatorINSt8__detail10_Hash_nodeISt4pairIKNSt7__cxx1112basic_stringIcSt11char_traitsIcESaIcEEESt3anyELb1EEEED2Ev, symObjAddr: 0x21B0, symBinAddr: 0x100006334, symSize: 0x14 }
  - { offsetInCU: 0x36828, offset: 0x36828, size: 0x8, addend: 0x0, symName: __ZNSt7__cxx1112basic_stringIcSt11char_traitsIcESaIcEE12_M_constructIPKcEEvT_S8_St20forward_iterator_tag, symObjAddr: 0x20B0, symBinAddr: 0x100006234, symSize: 0x100 }
  - { offsetInCU: 0x369A6, offset: 0x369A6, size: 0x8, addend: 0x0, symName: __ZZNSt7__cxx1112basic_stringIcSt11char_traitsIcESaIcEE12_M_constructIPKcEEvT_S8_St20forward_iterator_tagEN6_GuardC1EPS4_, symObjAddr: 0x2058, symBinAddr: 0x1000061DC, symSize: 0x24 }
  - { offsetInCU: 0x369D7, offset: 0x369D7, size: 0x8, addend: 0x0, symName: __ZZNSt7__cxx1112basic_stringIcSt11char_traitsIcESaIcEE12_M_constructIPKcEEvT_S8_St20forward_iterator_tagEN6_GuardD1Ev, symObjAddr: 0x207C, symBinAddr: 0x100006200, symSize: 0x34 }
  - { offsetInCU: 0x36A7E, offset: 0x36A7E, size: 0x8, addend: 0x0, symName: __ZNSt15__new_allocatorIcED2Ev, symObjAddr: 0x2044, symBinAddr: 0x1000061C8, symSize: 0x14 }
  - { offsetInCU: 0x36AC8, offset: 0x36AC8, size: 0x8, addend: 0x0, symName: __ZN9__gnu_cxx11char_traitsIcE2eqERKcS3_, symObjAddr: 0x2014, symBinAddr: 0x100006198, symSize: 0x30 }
  - { offsetInCU: 0x36B05, offset: 0x36B05, size: 0x8, addend: 0x0, symName: __ZNK9__gnu_cxx17__normal_iteratorIPNSt7__cxx1112basic_stringIcSt11char_traitsIcESaIcEEESt6vectorIS6_SaIS6_EEEdeEv, symObjAddr: 0x1FFC, symBinAddr: 0x100006180, symSize: 0x18 }
  - { offsetInCU: 0x36B2F, offset: 0x36B2F, size: 0x8, addend: 0x0, symName: __ZN9__gnu_cxx17__normal_iteratorIPNSt7__cxx1112basic_stringIcSt11char_traitsIcESaIcEEESt6vectorIS6_SaIS6_EEEppEv, symObjAddr: 0x1FD4, symBinAddr: 0x100006158, symSize: 0x28 }
  - { offsetInCU: 0x36B55, offset: 0x36B55, size: 0x8, addend: 0x0, symName: __ZN9__gnu_cxxneIPNSt7__cxx1112basic_stringIcSt11char_traitsIcESaIcEEESt6vectorIS6_SaIS6_EEEEbRKNS_17__normal_iteratorIT_T0_EESG_, symObjAddr: 0x1F90, symBinAddr: 0x100006114, symSize: 0x44 }
  - { offsetInCU: 0x36BA6, offset: 0x36BA6, size: 0x8, addend: 0x0, symName: __ZNSt6vectorINSt7__cxx1112basic_stringIcSt11char_traitsIcESaIcEEESaIS5_EE3endEv, symObjAddr: 0x1F68, symBinAddr: 0x1000060EC, symSize: 0x28 }
  - { offsetInCU: 0x36BD0, offset: 0x36BD0, size: 0x8, addend: 0x0, symName: __ZNSt6vectorINSt7__cxx1112basic_stringIcSt11char_traitsIcESaIcEEESaIS5_EE5beginEv, symObjAddr: 0x1F44, symBinAddr: 0x1000060C8, symSize: 0x24 }
  - { offsetInCU: 0x36BFA, offset: 0x36BFA, size: 0x8, addend: 0x0, symName: __ZNSt13unordered_mapINSt7__cxx1112basic_stringIcSt11char_traitsIcESaIcEEE9DataTypesSt4hashIS5_ESt8equal_toIS5_ESaISt4pairIKS5_S6_EEEixEOS5_, symObjAddr: 0x1F0C, symBinAddr: 0x100006090, symSize: 0x38 }
  - { offsetInCU: 0x36D65, offset: 0x36D65, size: 0x8, addend: 0x0, symName: __ZNSt10_HashtableINSt7__cxx1112basic_stringIcSt11char_traitsIcESaIcEEESt4pairIKS5_5TableESaIS9_ENSt8__detail10_Select1stESt8equal_toIS5_ESt4hashIS5_ENSB_18_Mod_range_hashingENSB_20_Default_ranged_hashENSB_20_Prime_rehash_policyENSB_17_Hashtable_traitsILb1ELb0ELb1EEEED1Ev, symObjAddr: 0x1EDC, symBinAddr: 0x100006060, symSize: 0x30 }
  - { offsetInCU: 0x36D47, offset: 0x36D47, size: 0x8, addend: 0x0, symName: __ZNSt8__detail21_Hashtable_ebo_helperILi0ESaINS_10_Hash_nodeISt4pairIKNSt7__cxx1112basic_stringIcSt11char_traitsIcESaIcEEE5TableELb1EEEELb1EEC2Ev, symObjAddr: 0x1EB0, symBinAddr: 0x100006034, symSize: 0x2C }
  - { offsetInCU: 0x36D26, offset: 0x36D26, size: 0x8, addend: 0x0, symName: __ZNSt8_Rb_treeINSt7__cxx1112basic_stringIcSt11char_traitsIcESaIcEEESt4pairIKS5_6RecordESt10_Select1stIS9_ESt4lessIS5_ESaIS9_EEaSERKSF_, symObjAddr: 0x1D54, symBinAddr: 0x100005ED8, symSize: 0x15C }
  - { offsetInCU: 0x36E4D, offset: 0x36E4D, size: 0x8, addend: 0x0, symName: __ZNSt13unordered_mapINSt7__cxx1112basic_stringIcSt11char_traitsIcESaIcEEE5TableSt4hashIS5_ESt8equal_toIS5_ESaISt4pairIKS5_S6_EEEixERSC_, symObjAddr: 0x1D30, symBinAddr: 0x100005EB4, symSize: 0x24 }
  - { offsetInCU: 0x36E8B, offset: 0x36E8B, size: 0x8, addend: 0x0, symName: __ZNSt8__detaileqERKNS_19_Node_iterator_baseISt4pairIKNSt7__cxx1112basic_stringIcSt11char_traitsIcESaIcEEE5TableELb1EEESD_, symObjAddr: 0x1D00, symBinAddr: 0x100005E84, symSize: 0x30 }
  - { offsetInCU: 0x36ECA, offset: 0x36ECA, size: 0x8, addend: 0x0, symName: __ZNSt13unordered_mapINSt7__cxx1112basic_stringIcSt11char_traitsIcESaIcEEE5TableSt4hashIS5_ESt8equal_toIS5_ESaISt4pairIKS5_S6_EEE4findERSC_, symObjAddr: 0x1CDC, symBinAddr: 0x100005E60, symSize: 0x24 }
  - { offsetInCU: 0x36F05, offset: 0x36F05, size: 0x8, addend: 0x0, symName: __ZNSt6vectorINSt7__cxx1112basic_stringIcSt11char_traitsIcESaIcEEESaIS5_EE9push_backERKS5_, symObjAddr: 0x1BE0, symBinAddr: 0x100005D64, symSize: 0xFC }
  - { offsetInCU: 0x3704F, offset: 0x3704F, size: 0x8, addend: 0x0, symName: __ZNSt8_Rb_treeINSt7__cxx1112basic_stringIcSt11char_traitsIcESaIcEEESt4pairIKS5_6RecordESt10_Select1stIS9_ESt4lessIS5_ESaIS9_EEC1ERKSF_, symObjAddr: 0x1B5C, symBinAddr: 0x100005CE0, symSize: 0x84 }
  - { offsetInCU: 0x37148, offset: 0x37148, size: 0x8, addend: 0x0, symName: __ZNSt10_HashtableINSt7__cxx1112basic_stringIcSt11char_traitsIcESaIcEEESt4pairIKS5_9DataTypesESaIS9_ENSt8__detail10_Select1stESt8equal_toIS5_ESt4hashIS5_ENSB_18_Mod_range_hashingENSB_20_Default_ranged_hashENSB_20_Prime_rehash_policyENSB_17_Hashtable_traitsILb1ELb0ELb1EEEEC1ERKSM_, symObjAddr: 0x1A40, symBinAddr: 0x100005BC4, symSize: 0x11C }
  - { offsetInCU: 0x37174, offset: 0x37174, size: 0x8, addend: 0x0, symName: __ZNKSt8__detail14_Node_iteratorISt4pairIKNSt7__cxx1112basic_stringIcSt11char_traitsIcESaIcEEE5TableELb0ELb1EEdeEv, symObjAddr: 0x1A04, symBinAddr: 0x100005B88, symSize: 0x3C }
  - { offsetInCU: 0x371E6, offset: 0x371E6, size: 0x8, addend: 0x0, symName: __ZNSt8__detail14_Node_iteratorISt4pairIKNSt7__cxx1112basic_stringIcSt11char_traitsIcESaIcEEE5TableELb0ELb1EEppEv, symObjAddr: 0x19E4, symBinAddr: 0x100005B68, symSize: 0x20 }
  - { offsetInCU: 0x3720C, offset: 0x3720C, size: 0x8, addend: 0x0, symName: __ZNSt8__detailneERKNS_19_Node_iterator_baseISt4pairIKNSt7__cxx1112basic_stringIcSt11char_traitsIcESaIcEEE5TableELb1EEESD_, symObjAddr: 0x19B4, symBinAddr: 0x100005B38, symSize: 0x30 }
  - { offsetInCU: 0x3724B, offset: 0x3724B, size: 0x8, addend: 0x0, symName: __ZNSt13unordered_mapINSt7__cxx1112basic_stringIcSt11char_traitsIcESaIcEEE5TableSt4hashIS5_ESt8equal_toIS5_ESaISt4pairIKS5_S6_EEE3endEv, symObjAddr: 0x1998, symBinAddr: 0x100005B1C, symSize: 0x1C }
  - { offsetInCU: 0x37275, offset: 0x37275, size: 0x8, addend: 0x0, symName: __ZNSt13unordered_mapINSt7__cxx1112basic_stringIcSt11char_traitsIcESaIcEEE5TableSt4hashIS5_ESt8equal_toIS5_ESaISt4pairIKS5_S6_EEE5beginEv, symObjAddr: 0x197C, symBinAddr: 0x100005B00, symSize: 0x1C }
  - { offsetInCU: 0x3730D, offset: 0x3730D, size: 0x8, addend: 0x0, symName: __ZNSt6vectorINSt7__cxx1112basic_stringIcSt11char_traitsIcESaIcEEESaIS5_EED1Ev, symObjAddr: 0x1920, symBinAddr: 0x100005AA4, symSize: 0x5C }
  - { offsetInCU: 0x37394, offset: 0x37394, size: 0x8, addend: 0x0, symName: __ZNSt12_Vector_baseINSt7__cxx1112basic_stringIcSt11char_traitsIcESaIcEEESaIS5_EED2Ev, symObjAddr: 0x18D0, symBinAddr: 0x100005A54, symSize: 0x50 }
  - { offsetInCU: 0x37402, offset: 0x37402, size: 0x8, addend: 0x0, symName: __ZNSt12_Vector_baseINSt7__cxx1112basic_stringIcSt11char_traitsIcESaIcEEESaIS5_EE12_Vector_implC1Ev, symObjAddr: 0x1898, symBinAddr: 0x100005A1C, symSize: 0x38 }
  - { offsetInCU: 0x3740F, offset: 0x3740F, size: 0x8, addend: 0x0, symName: __ZNSt13unordered_mapINSt7__cxx1112basic_stringIcSt11char_traitsIcESaIcEEE9DataTypesSt4hashIS5_ESt8equal_toIS5_ESaISt4pairIKS5_S6_EEEixERSC_, symObjAddr: 0x1874, symBinAddr: 0x1000059F8, symSize: 0x24 }
  - { offsetInCU: 0x3744A, offset: 0x3744A, size: 0x8, addend: 0x0, symName: __ZNSt10_HashtableINSt7__cxx1112basic_stringIcSt11char_traitsIcESaIcEEESt4pairIKS5_9DataTypesESaIS9_ENSt8__detail10_Select1stESt8equal_toIS5_ESt4hashIS5_ENSB_18_Mod_range_hashingENSB_20_Default_ranged_hashENSB_20_Prime_rehash_policyENSB_17_Hashtable_traitsILb1ELb0ELb1EEEEaSERKSM_, symObjAddr: 0x16E4, symBinAddr: 0x100005868, symSize: 0x190 }
  - { offsetInCU: 0x37635, offset: 0x37635, size: 0x8, addend: 0x0, symName: __ZNSt8_Rb_treeINSt7__cxx1112basic_stringIcSt11char_traitsIcESaIcEEESt4pairIKS5_6RecordESt10_Select1stIS9_ESt4lessIS5_ESaIS9_EED1Ev, symObjAddr: 0x16B0, symBinAddr: 0x100005834, symSize: 0x34 }
  - { offsetInCU: 0x376AD, offset: 0x376AD, size: 0x8, addend: 0x0, symName: __ZNSt8_Rb_treeINSt7__cxx1112basic_stringIcSt11char_traitsIcESaIcEEESt4pairIKS5_6RecordESt10_Select1stIS9_ESt4lessIS5_ESaIS9_EE13_Rb_tree_implISD_Lb1EEC1Ev, symObjAddr: 0x166C, symBinAddr: 0x1000057F0, symSize: 0x44 }
  - { offsetInCU: 0x377B7, offset: 0x377B7, size: 0x8, addend: 0x0, symName: __ZNSt10_HashtableINSt7__cxx1112basic_stringIcSt11char_traitsIcESaIcEEESt4pairIKS5_9DataTypesESaIS9_ENSt8__detail10_Select1stESt8equal_toIS5_ESt4hashIS5_ENSB_18_Mod_range_hashingENSB_20_Default_ranged_hashENSB_20_Prime_rehash_policyENSB_17_Hashtable_traitsILb1ELb0ELb1EEEED1Ev, symObjAddr: 0x163C, symBinAddr: 0x1000057C0, symSize: 0x30 }
  - { offsetInCU: 0x37799, offset: 0x37799, size: 0x8, addend: 0x0, symName: __ZNSt8__detail21_Hashtable_ebo_helperILi0ESaINS_10_Hash_nodeISt4pairIKNSt7__cxx1112basic_stringIcSt11char_traitsIcESaIcEEE9DataTypesELb1EEEELb1EEC2Ev, symObjAddr: 0x1610, symBinAddr: 0x100005794, symSize: 0x2C }
  - { offsetInCU: 0x378BD, offset: 0x378BD, size: 0x8, addend: 0x0, symName: __ZNSt10_HashtableINSt7__cxx1112basic_stringIcSt11char_traitsIcESaIcEEESt4pairIKS5_St3anyESaIS9_ENSt8__detail10_Select1stESt8equal_toIS5_ESt4hashIS5_ENSB_18_Mod_range_hashingENSB_20_Default_ranged_hashENSB_20_Prime_rehash_policyENSB_17_Hashtable_traitsILb1ELb0ELb1EEEEC1ERKSM_, symObjAddr: 0x14F4, symBinAddr: 0x100005678, symSize: 0x11C }
  - { offsetInCU: 0x37A1D, offset: 0x37A1D, size: 0x8, addend: 0x0, symName: __ZNSt10_HashtableINSt7__cxx1112basic_stringIcSt11char_traitsIcESaIcEEESt4pairIKS5_St3anyESaIS9_ENSt8__detail10_Select1stESt8equal_toIS5_ESt4hashIS5_ENSB_18_Mod_range_hashingENSB_20_Default_ranged_hashENSB_20_Prime_rehash_policyENSB_17_Hashtable_traitsILb1ELb0ELb1EEEED1Ev, symObjAddr: 0x14C4, symBinAddr: 0x100005648, symSize: 0x30 }
  - { offsetInCU: 0x379E2, offset: 0x379E2, size: 0x8, addend: 0x0, symName: __ZNSt8__detail21_Hashtable_ebo_helperILi0ESt8equal_toINSt7__cxx1112basic_stringIcSt11char_traitsIcESaIcEEEELb1EEC2Ev, symObjAddr: 0x14B0, symBinAddr: 0x100005634, symSize: 0x14 }
  - { offsetInCU: 0x37A1E, offset: 0x37A1E, size: 0x8, addend: 0x0, symName: __ZNSt8__detail21_Hashtable_ebo_helperILi1ESt4hashINSt7__cxx1112basic_stringIcSt11char_traitsIcESaIcEEEELb1EEC2Ev, symObjAddr: 0x149C, symBinAddr: 0x100005620, symSize: 0x14 }
  - { offsetInCU: 0x379D3, offset: 0x379D3, size: 0x8, addend: 0x0, symName: __ZSt11__addressofINSt7__cxx1112basic_stringIcSt11char_traitsIcESaIcEEEEPT_RS6_, symObjAddr: 0x1488, symBinAddr: 0x10000560C, symSize: 0x14 }
  - { offsetInCU: 0x37A0C, offset: 0x37A0C, size: 0x8, addend: 0x0, symName: __ZSt4moveIRNSt7__cxx1112basic_stringIcSt11char_traitsIcESaIcEEEEONSt16remove_referenceIT_E4typeEOS8_, symObjAddr: 0x1474, symBinAddr: 0x1000055F8, symSize: 0x14 }
  - { offsetInCU: 0x37ACB, offset: 0x37ACB, size: 0x8, addend: 0x0, symName: __ZNSt7__cxx1112basic_stringIcSt11char_traitsIcESaIcEEC1IS3_EEPKcRKS3_, symObjAddr: 0x13D8, symBinAddr: 0x10000555C, symSize: 0x9C }
  - { offsetInCU: 0x37AEA, offset: 0x37AEA, size: 0x8, addend: 0x0, symName: __ZSt3maxImERKT_S2_S2_, symObjAddr: 0x13A0, symBinAddr: 0x100005524, symSize: 0x38 }
  - { offsetInCU: 0x37BD3, offset: 0x37BD3, size: 0x8, addend: 0x0, symName: __ZNSt7__cxx1112basic_stringIcSt11char_traitsIcESaIcEE12_Alloc_hiderD1Ev, symObjAddr: 0x1374, symBinAddr: 0x1000054F8, symSize: 0x2C }
  - { offsetInCU: 0x37BD4, offset: 0x37BD4, size: 0x8, addend: 0x0, symName: __ZN9__gnu_cxx11char_traitsIcE6lengthEPKc, symObjAddr: 0x131C, symBinAddr: 0x1000054A0, symSize: 0x58 }
  - { offsetInCU: 0x37C16, offset: 0x37C16, size: 0x8, addend: 0x0, symName: _main, symObjAddr: 0xEF8, symBinAddr: 0x10000507C, symSize: 0x424 }
  - { offsetInCU: 0x37FE5, offset: 0x37FE5, size: 0x8, addend: 0x0, symName: __ZN2DBD1Ev, symObjAddr: 0xED8, symBinAddr: 0x10000505C, symSize: 0x20 }
  - { offsetInCU: 0x38028, offset: 0x38028, size: 0x8, addend: 0x0, symName: __ZN2DBC1Ev, symObjAddr: 0xEB8, symBinAddr: 0x10000503C, symSize: 0x20 }
  - { offsetInCU: 0x380EF, offset: 0x380EF, size: 0x8, addend: 0x0, symName: __ZNSt13unordered_mapINSt7__cxx1112basic_stringIcSt11char_traitsIcESaIcEEE5TableSt4hashIS5_ESt8equal_toIS5_ESaISt4pairIKS5_S6_EEED1Ev, symObjAddr: 0xE98, symBinAddr: 0x10000501C, symSize: 0x20 }
  - { offsetInCU: 0x3812F, offset: 0x3812F, size: 0x8, addend: 0x0, symName: __ZNSt13unordered_mapINSt7__cxx1112basic_stringIcSt11char_traitsIcESaIcEEE5TableSt4hashIS5_ESt8equal_toIS5_ESaISt4pairIKS5_S6_EEEC1Ev, symObjAddr: 0xE78, symBinAddr: 0x100004FFC, symSize: 0x20 }
  - { offsetInCU: 0x381FA, offset: 0x381FA, size: 0x8, addend: 0x0, symName: __ZNSt10_HashtableINSt7__cxx1112basic_stringIcSt11char_traitsIcESaIcEEESt4pairIKS5_5TableESaIS9_ENSt8__detail10_Select1stESt8equal_toIS5_ESt4hashIS5_ENSB_18_Mod_range_hashingENSB_20_Default_ranged_hashENSB_20_Prime_rehash_policyENSB_17_Hashtable_traitsILb1ELb0ELb1EEEEC1Ev, symObjAddr: 0xE08, symBinAddr: 0x100004F8C, symSize: 0x70 }
  - { offsetInCU: 0x381BD, offset: 0x381BD, size: 0x8, addend: 0x0, symName: __ZNSt8__detail16_Hashtable_allocISaINS_10_Hash_nodeISt4pairIKNSt7__cxx1112basic_stringIcSt11char_traitsIcESaIcEEE5TableELb1EEEEED2Ev, symObjAddr: 0xDE8, symBinAddr: 0x100004F6C, symSize: 0x20 }
  - { offsetInCU: 0x381FD, offset: 0x381FD, size: 0x8, addend: 0x0, symName: __ZNSt8__detail16_Hashtable_allocISaINS_10_Hash_nodeISt4pairIKNSt7__cxx1112basic_stringIcSt11char_traitsIcESaIcEEE5TableELb1EEEEEC2Ev, symObjAddr: 0xDC8, symBinAddr: 0x100004F4C, symSize: 0x20 }
  - { offsetInCU: 0x38258, offset: 0x38258, size: 0x8, addend: 0x0, symName: __ZNSt8__detail21_Hashtable_ebo_helperILi0ESaINS_10_Hash_nodeISt4pairIKNSt7__cxx1112basic_stringIcSt11char_traitsIcESaIcEEE5TableELb1EEEELb1EED2Ev, symObjAddr: 0xD9C, symBinAddr: 0x100004F20, symSize: 0x2C }
  - { offsetInCU: 0x3831A, offset: 0x3831A, size: 0x8, addend: 0x0, symName: __ZNSt8__detail15_Hashtable_baseINSt7__cxx1112basic_stringIcSt11char_traitsIcESaIcEEESt4pairIKS6_5TableENS_10_Select1stESt8equal_toIS6_ESt4hashIS6_ENS_18_Mod_range_hashingENS_20_Default_ranged_hashENS_17_Hashtable_traitsILb1ELb0ELb1EEEEC2Ev, symObjAddr: 0xD74, symBinAddr: 0x100004EF8, symSize: 0x28 }
  - { offsetInCU: 0x38329, offset: 0x38329, size: 0x8, addend: 0x0, symName: __ZNSt8__detail15_Hash_code_baseINSt7__cxx1112basic_stringIcSt11char_traitsIcESaIcEEESt4pairIKS6_5TableENS_10_Select1stESt4hashIS6_ENS_18_Mod_range_hashingENS_20_Default_ranged_hashELb1EEC2Ev, symObjAddr: 0xD54, symBinAddr: 0x100004ED8, symSize: 0x20 }
  - { offsetInCU: 0x38294, offset: 0x38294, size: 0x8, addend: 0x0, symName: __ZN2DB11createTableENSt7__cxx1112basic_stringIcSt11char_traitsIcESaIcEEERSt13unordered_mapIS5_9DataTypesSt4hashIS5_ESt8equal_toIS5_ESaISt4pairIKS5_S7_EEES5_, symObjAddr: 0xC3C, symBinAddr: 0x100004DC0, symSize: 0x118 }
  - { offsetInCU: 0x3831E, offset: 0x3831E, size: 0x8, addend: 0x0, symName: __ZN5TableaSERKS_, symObjAddr: 0xBEC, symBinAddr: 0x100004D70, symSize: 0x50 }
  - { offsetInCU: 0x38350, offset: 0x38350, size: 0x8, addend: 0x0, symName: __ZNSt3mapINSt7__cxx1112basic_stringIcSt11char_traitsIcESaIcEEE6RecordSt4lessIS5_ESaISt4pairIKS5_S6_EEEaSERKSD_, symObjAddr: 0xBC4, symBinAddr: 0x100004D48, symSize: 0x28 }
  - { offsetInCU: 0x38383, offset: 0x38383, size: 0x8, addend: 0x0, symName: __ZN2DB9getTablesB5cxx11Ev, symObjAddr: 0xB00, symBinAddr: 0x100004C84, symSize: 0xC4 }
  - { offsetInCU: 0x3846D, offset: 0x3846D, size: 0x8, addend: 0x0, symName: __ZNSt4pairIKNSt7__cxx1112basic_stringIcSt11char_traitsIcESaIcEEE5TableED1Ev, symObjAddr: 0xAD4, symBinAddr: 0x100004C58, symSize: 0x2C }
  - { offsetInCU: 0x384B6, offset: 0x384B6, size: 0x8, addend: 0x0, symName: __ZNSt4pairIKNSt7__cxx1112basic_stringIcSt11char_traitsIcESaIcEEE5TableEC1ERKS8_, symObjAddr: 0xA74, symBinAddr: 0x100004BF8, symSize: 0x60 }
  - { offsetInCU: 0x384CA, offset: 0x384CA, size: 0x8, addend: 0x0, symName: __ZN5TableD1Ev, symObjAddr: 0xA3C, symBinAddr: 0x100004BC0, symSize: 0x38 }
  - { offsetInCU: 0x38515, offset: 0x38515, size: 0x8, addend: 0x0, symName: __ZN5TableC1ERKS_, symObjAddr: 0x9AC, symBinAddr: 0x100004B30, symSize: 0x90 }
  - { offsetInCU: 0x385C1, offset: 0x385C1, size: 0x8, addend: 0x0, symName: __ZNSt3mapINSt7__cxx1112basic_stringIcSt11char_traitsIcESaIcEEE6RecordSt4lessIS5_ESaISt4pairIKS5_S6_EEEC1ERKSD_, symObjAddr: 0x984, symBinAddr: 0x100004B08, symSize: 0x28 }
  - { offsetInCU: 0x3862D, offset: 0x3862D, size: 0x8, addend: 0x0, symName: __ZNSt13unordered_mapINSt7__cxx1112basic_stringIcSt11char_traitsIcESaIcEEE9DataTypesSt4hashIS5_ESt8equal_toIS5_ESaISt4pairIKS5_S6_EEEC1ERKSF_, symObjAddr: 0x95C, symBinAddr: 0x100004AE0, symSize: 0x28 }
  - { offsetInCU: 0x38637, offset: 0x38637, size: 0x8, addend: 0x0, symName: __ZNSt6vectorINSt7__cxx1112basic_stringIcSt11char_traitsIcESaIcEEESaIS5_EEC1Ev, symObjAddr: 0x93C, symBinAddr: 0x100004AC0, symSize: 0x20 }
  - { offsetInCU: 0x3867E, offset: 0x3867E, size: 0x8, addend: 0x0, symName: __ZNSt12_Vector_baseINSt7__cxx1112basic_stringIcSt11char_traitsIcESaIcEEESaIS5_EEC2Ev, symObjAddr: 0x91C, symBinAddr: 0x100004AA0, symSize: 0x20 }
  - { offsetInCU: 0x386D9, offset: 0x386D9, size: 0x8, addend: 0x0, symName: __ZNSt12_Vector_baseINSt7__cxx1112basic_stringIcSt11char_traitsIcESaIcEEESaIS5_EE12_Vector_implD1Ev, symObjAddr: 0x8F0, symBinAddr: 0x100004A74, symSize: 0x2C }
  - { offsetInCU: 0x386F5, offset: 0x386F5, size: 0x8, addend: 0x0, symName: __ZN6RecordD1Ev, symObjAddr: 0x8D0, symBinAddr: 0x100004A54, symSize: 0x20 }
  - { offsetInCU: 0x38780, offset: 0x38780, size: 0x8, addend: 0x0, symName: __ZNSt4pairIKNSt7__cxx1112basic_stringIcSt11char_traitsIcESaIcEEESt3anyED1Ev, symObjAddr: 0x8A4, symBinAddr: 0x100004A28, symSize: 0x2C }
  - { offsetInCU: 0x387C9, offset: 0x387C9, size: 0x8, addend: 0x0, symName: __ZNSt4pairIKNSt7__cxx1112basic_stringIcSt11char_traitsIcESaIcEEESt3anyEC1ERKS8_, symObjAddr: 0x844, symBinAddr: 0x1000049C8, symSize: 0x60 }
  - { offsetInCU: 0x3886E, offset: 0x3886E, size: 0x8, addend: 0x0, symName: __ZN5TableC1ERSt13unordered_mapINSt7__cxx1112basic_stringIcSt11char_traitsIcESaIcEEE9DataTypesSt4hashIS6_ESt8equal_toIS6_ESaISt4pairIKS6_S7_EEES6_, symObjAddr: 0x7B4, symBinAddr: 0x100004938, symSize: 0x90 }
  - { offsetInCU: 0x38819, offset: 0x38819, size: 0x8, addend: 0x0, symName: __ZNSt13unordered_mapINSt7__cxx1112basic_stringIcSt11char_traitsIcESaIcEEE9DataTypesSt4hashIS5_ESt8equal_toIS5_ESaISt4pairIKS5_S6_EEEaSERKSF_, symObjAddr: 0x78C, symBinAddr: 0x100004910, symSize: 0x28 }
  - { offsetInCU: 0x38870, offset: 0x38870, size: 0x8, addend: 0x0, symName: __ZN5TableC1Ev, symObjAddr: 0x754, symBinAddr: 0x1000048D8, symSize: 0x38 }
  - { offsetInCU: 0x38917, offset: 0x38917, size: 0x8, addend: 0x0, symName: __ZNSt3mapINSt7__cxx1112basic_stringIcSt11char_traitsIcESaIcEEE6RecordSt4lessIS5_ESaISt4pairIKS5_S6_EEED1Ev, symObjAddr: 0x734, symBinAddr: 0x1000048B8, symSize: 0x20 }
  - { offsetInCU: 0x38957, offset: 0x38957, size: 0x8, addend: 0x0, symName: __ZNSt3mapINSt7__cxx1112basic_stringIcSt11char_traitsIcESaIcEEE6RecordSt4lessIS5_ESaISt4pairIKS5_S6_EEEC1Ev, symObjAddr: 0x714, symBinAddr: 0x100004898, symSize: 0x20 }
  - { offsetInCU: 0x389AF, offset: 0x389AF, size: 0x8, addend: 0x0, symName: __ZNSt8_Rb_treeINSt7__cxx1112basic_stringIcSt11char_traitsIcESaIcEEESt4pairIKS5_6RecordESt10_Select1stIS9_ESt4lessIS5_ESaIS9_EEC1Ev, symObjAddr: 0x6F4, symBinAddr: 0x100004878, symSize: 0x20 }
  - { offsetInCU: 0x38A15, offset: 0x38A15, size: 0x8, addend: 0x0, symName: __ZNSt8_Rb_treeINSt7__cxx1112basic_stringIcSt11char_traitsIcESaIcEEESt4pairIKS5_6RecordESt10_Select1stIS9_ESt4lessIS5_ESaIS9_EE13_Rb_tree_implISD_Lb1EED1Ev, symObjAddr: 0x6C8, symBinAddr: 0x10000484C, symSize: 0x2C }
  - { offsetInCU: 0x38A74, offset: 0x38A74, size: 0x8, addend: 0x0, symName: __ZNSt13unordered_mapINSt7__cxx1112basic_stringIcSt11char_traitsIcESaIcEEE9DataTypesSt4hashIS5_ESt8equal_toIS5_ESaISt4pairIKS5_S6_EEED1Ev, symObjAddr: 0x6A8, symBinAddr: 0x10000482C, symSize: 0x20 }
  - { offsetInCU: 0x38AB4, offset: 0x38AB4, size: 0x8, addend: 0x0, symName: __ZNSt13unordered_mapINSt7__cxx1112basic_stringIcSt11char_traitsIcESaIcEEE9DataTypesSt4hashIS5_ESt8equal_toIS5_ESaISt4pairIKS5_S6_EEEC1Ev, symObjAddr: 0x688, symBinAddr: 0x10000480C, symSize: 0x20 }
  - { offsetInCU: 0x38B7F, offset: 0x38B7F, size: 0x8, addend: 0x0, symName: __ZNSt10_HashtableINSt7__cxx1112basic_stringIcSt11char_traitsIcESaIcEEESt4pairIKS5_9DataTypesESaIS9_ENSt8__detail10_Select1stESt8equal_toIS5_ESt4hashIS5_ENSB_18_Mod_range_hashingENSB_20_Default_ranged_hashENSB_20_Prime_rehash_policyENSB_17_Hashtable_traitsILb1ELb0ELb1EEEEC1Ev, symObjAddr: 0x618, symBinAddr: 0x10000479C, symSize: 0x70 }
  - { offsetInCU: 0x38B42, offset: 0x38B42, size: 0x8, addend: 0x0, symName: __ZNSt8__detail16_Hashtable_allocISaINS_10_Hash_nodeISt4pairIKNSt7__cxx1112basic_stringIcSt11char_traitsIcESaIcEEE9DataTypesELb1EEEEED2Ev, symObjAddr: 0x5F8, symBinAddr: 0x10000477C, symSize: 0x20 }
  - { offsetInCU: 0x38B82, offset: 0x38B82, size: 0x8, addend: 0x0, symName: __ZNSt8__detail16_Hashtable_allocISaINS_10_Hash_nodeISt4pairIKNSt7__cxx1112basic_stringIcSt11char_traitsIcESaIcEEE9DataTypesELb1EEEEEC2Ev, symObjAddr: 0x5D8, symBinAddr: 0x10000475C, symSize: 0x20 }
  - { offsetInCU: 0x38BDD, offset: 0x38BDD, size: 0x8, addend: 0x0, symName: __ZNSt8__detail21_Hashtable_ebo_helperILi0ESaINS_10_Hash_nodeISt4pairIKNSt7__cxx1112basic_stringIcSt11char_traitsIcESaIcEEE9DataTypesELb1EEEELb1EED2Ev, symObjAddr: 0x5AC, symBinAddr: 0x100004730, symSize: 0x2C }
  - { offsetInCU: 0x38C9F, offset: 0x38C9F, size: 0x8, addend: 0x0, symName: __ZNSt8__detail15_Hashtable_baseINSt7__cxx1112basic_stringIcSt11char_traitsIcESaIcEEESt4pairIKS6_9DataTypesENS_10_Select1stESt8equal_toIS6_ESt4hashIS6_ENS_18_Mod_range_hashingENS_20_Default_ranged_hashENS_17_Hashtable_traitsILb1ELb0ELb1EEEEC2Ev, symObjAddr: 0x584, symBinAddr: 0x100004708, symSize: 0x28 }
  - { offsetInCU: 0x38CAE, offset: 0x38CAE, size: 0x8, addend: 0x0, symName: __ZNSt8__detail15_Hash_code_baseINSt7__cxx1112basic_stringIcSt11char_traitsIcESaIcEEESt4pairIKS6_9DataTypesENS_10_Select1stESt4hashIS6_ENS_18_Mod_range_hashingENS_20_Default_ranged_hashELb1EEC2Ev, symObjAddr: 0x564, symBinAddr: 0x1000046E8, symSize: 0x20 }
  - { offsetInCU: 0x38CB9, offset: 0x38CB9, size: 0x8, addend: 0x0, symName: __ZNSt13unordered_mapINSt7__cxx1112basic_stringIcSt11char_traitsIcESaIcEEESt3anySt4hashIS5_ESt8equal_toIS5_ESaISt4pairIKS5_S6_EEEC1ERKSF_, symObjAddr: 0x53C, symBinAddr: 0x1000046C0, symSize: 0x28 }
  - { offsetInCU: 0x38D0B, offset: 0x38D0B, size: 0x8, addend: 0x0, symName: __ZNSt13unordered_mapINSt7__cxx1112basic_stringIcSt11char_traitsIcESaIcEEESt3anySt4hashIS5_ESt8equal_toIS5_ESaISt4pairIKS5_S6_EEED1Ev, symObjAddr: 0x51C, symBinAddr: 0x1000046A0, symSize: 0x20 }
  - { offsetInCU: 0x38D59, offset: 0x38D59, size: 0x8, addend: 0x0, symName: __ZNSt8__detail16_Hashtable_allocISaINS_10_Hash_nodeISt4pairIKNSt7__cxx1112basic_stringIcSt11char_traitsIcESaIcEEESt3anyELb1EEEEED2Ev, symObjAddr: 0x4FC, symBinAddr: 0x100004680, symSize: 0x20 }
  - { offsetInCU: 0x38DB4, offset: 0x38DB4, size: 0x8, addend: 0x0, symName: __ZNSt8__detail21_Hashtable_ebo_helperILi0ESaINS_10_Hash_nodeISt4pairIKNSt7__cxx1112basic_stringIcSt11char_traitsIcESaIcEEESt3anyELb1EEEELb1EED2Ev, symObjAddr: 0x4D0, symBinAddr: 0x100004654, symSize: 0x2C }
  - { offsetInCU: 0x38D70, offset: 0x38D70, size: 0x8, addend: 0x0, symName: __ZNSt15_Rb_tree_header8_M_resetEv, symObjAddr: 0x494, symBinAddr: 0x100004618, symSize: 0x3C }
  - { offsetInCU: 0x38DCB, offset: 0x38DCB, size: 0x8, addend: 0x0, symName: __ZNSt15_Rb_tree_headerC2Ev, symObjAddr: 0x46C, symBinAddr: 0x1000045F0, symSize: 0x28 }
  - { offsetInCU: 0x38DD6, offset: 0x38DD6, size: 0x8, addend: 0x0, symName: __ZNSt18_Rb_tree_node_base10_S_maximumEPS_, symObjAddr: 0x438, symBinAddr: 0x1000045BC, symSize: 0x34 }
  - { offsetInCU: 0x38DFF, offset: 0x38DFF, size: 0x8, addend: 0x0, symName: __ZNSt18_Rb_tree_node_base10_S_minimumEPS_, symObjAddr: 0x404, symBinAddr: 0x100004588, symSize: 0x34 }
  - { offsetInCU: 0x38E2C, offset: 0x38E2C, size: 0x8, addend: 0x0, symName: __ZNKSt3any9has_valueEv, symObjAddr: 0x3E0, symBinAddr: 0x100004564, symSize: 0x24 }
  - { offsetInCU: 0x38E56, offset: 0x38E56, size: 0x8, addend: 0x0, symName: __ZNSt3any5resetEv, symObjAddr: 0x394, symBinAddr: 0x100004518, symSize: 0x4C }
  - { offsetInCU: 0x38EAE, offset: 0x38EAE, size: 0x8, addend: 0x0, symName: __ZNSt3anyD1Ev, symObjAddr: 0x374, symBinAddr: 0x1000044F8, symSize: 0x20 }
  - { offsetInCU: 0x38F0E, offset: 0x38F0E, size: 0x8, addend: 0x0, symName: __ZNSt3anyC1ERKS_, symObjAddr: 0x300, symBinAddr: 0x100004484, symSize: 0x74 }
  - { offsetInCU: 0x38F8A, offset: 0x38F8A, size: 0x8, addend: 0x0, symName: __ZNSt3any8_StorageC1Ev, symObjAddr: 0x2E4, symBinAddr: 0x100004468, symSize: 0x1C }
  - { offsetInCU: 0x38F99, offset: 0x38F99, size: 0x8, addend: 0x0, symName: __ZSt3minImERKT_S2_S2_, symObjAddr: 0x2AC, symBinAddr: 0x100004430, symSize: 0x38 }
  - { offsetInCU: 0x38FDF, offset: 0x38FDF, size: 0x8, addend: 0x0, symName: __ZNSt8__detail20_Prime_rehash_policy8_M_resetEm, symObjAddr: 0x288, symBinAddr: 0x10000440C, symSize: 0x24 }
  - { offsetInCU: 0x3901A, offset: 0x3901A, size: 0x8, addend: 0x0, symName: __ZNSt8__detail20_Prime_rehash_policy8_M_resetEv, symObjAddr: 0x26C, symBinAddr: 0x1000043F0, symSize: 0x1C }
  - { offsetInCU: 0x39044, offset: 0x39044, size: 0x8, addend: 0x0, symName: __ZNKSt8__detail20_Prime_rehash_policy8_M_stateEv, symObjAddr: 0x254, symBinAddr: 0x1000043D8, symSize: 0x18 }
  - { offsetInCU: 0x390BB, offset: 0x390BB, size: 0x8, addend: 0x0, symName: __ZNSt8__detail20_Prime_rehash_policyC1Ef, symObjAddr: 0x228, symBinAddr: 0x1000043AC, symSize: 0x2C }
  - { offsetInCU: 0x390C5, offset: 0x390C5, size: 0x8, addend: 0x0, symName: __ZNKSt8__detail18_Mod_range_hashingclEmm, symObjAddr: 0x1F8, symBinAddr: 0x10000437C, symSize: 0x30 }
  - { offsetInCU: 0x3914B, offset: 0x3914B, size: 0x8, addend: 0x0, symName: __ZNSt8__detail15_Hash_node_baseC1Ev, symObjAddr: 0x1DC, symBinAddr: 0x100004360, symSize: 0x1C }
  - { offsetInCU: 0x39175, offset: 0x39175, size: 0x8, addend: 0x0, symName: __ZNSt8__detail15_Hash_node_baseC2Ev, symObjAddr: 0x1C0, symBinAddr: 0x100004344, symSize: 0x1C }
  - { offsetInCU: 0x39177, offset: 0x39177, size: 0x8, addend: 0x0, symName: __ZNSt10_Hash_impl4hashEPKvmm, symObjAddr: 0x194, symBinAddr: 0x100004318, symSize: 0x2C }
  - { offsetInCU: 0x391C0, offset: 0x391C0, size: 0x8, addend: 0x0, symName: __ZNSt11char_traitsIcE6lengthEPKc, symObjAddr: 0x158, symBinAddr: 0x1000042DC, symSize: 0x3C }
  - { offsetInCU: 0x39204, offset: 0x39204, size: 0x8, addend: 0x0, symName: __ZNSt11char_traitsIcE7compareEPKcS2_m, symObjAddr: 0x68, symBinAddr: 0x1000041EC, symSize: 0xF0 }
  - { offsetInCU: 0x3928E, offset: 0x3928E, size: 0x8, addend: 0x0, symName: __ZNSt11char_traitsIcE2ltERKcS2_, symObjAddr: 0x30, symBinAddr: 0x1000041B4, symSize: 0x38 }
  - { offsetInCU: 0x392D6, offset: 0x392D6, size: 0x8, addend: 0x0, symName: __ZdlPvS_, symObjAddr: 0x18, symBinAddr: 0x10000419C, symSize: 0x18 }
  - { offsetInCU: 0x3930B, offset: 0x3930B, size: 0x8, addend: 0x0, symName: __ZnwmPv, symObjAddr: 0x0, symBinAddr: 0x100004184, symSize: 0x18 }
...
